  4000  DB 0x41, 0x42, 0x10, 0x40, 0x43, 0x47, 0x38, 0x35 ; AB.@CG85
  4008  DB 0x30, 0x30, 0x39, 0x00, 0x00, 0x00, 0x00, 0x00 ; 009.....

; --- L4010 ---
  4010  F3          DI
  4011  ED 56       IM 1
  4013  3E C3       LD A,0xc3
  4015  32 9A FD    LD (0xfd9a),A
  4018  21 DA 43    LD HL,0x43da
  401B  22 9B FD    LD (0xfd9b),HL
  401E  31 00 F0    LD SP,0xf000
  4021  97          SUB A
  4022  32 00 E7    LD (0xe700),A
  4025  CD 45 4E    CALL L4E45
  4028  CD 3F 51    CALL L513F
  402B  21 00 E0    LD HL,0xe000
  402E  11 01 E0    LD DE,0xe001
  4031  01 FF 07    LD BC,0x07ff
  4034  36 00       LD (HL),0x00
  4036  ED B0       LDIR
  4038  3E 10       LD A,0x10
  403A  32 07 E1    LD (0xe107),A
  403D  3E 01       LD A,0x01
  403F  32 01 E7    LD (0xe701),A

; --- L4042 ---
  4042  CD 6C 51    CALL L516C
  4045  CD 8A 42    CALL L428A
  4048  97          SUB A
  4049  32 00 E7    LD (0xe700),A
  404C  CD 11 5A    CALL L5A11
  404F  CD DB 41    CALL L41DB
  4052  06 02       LD B,0x02
  4054  CD EC 5B    CALL L5BEC
  4057  CD E2 42    CALL L42E2
  405A  3A 01 E7    LD A,(0xe701)
  405D  E6 07       AND 0x07
  405F  3E 07       LD A,0x07
  4061  20 02       JR NZ,L4065
  4063  3E 02       LD A,0x02

; --- L4065 ---
  4065  CD 89 51    CALL L5189

; --- L4068 ---
  4068  DD 21 00 E3 LD IX,0xe300
  406C  DD 36 00 01 LD (IX+0),0x01
  4070  DD 36 05 00 LD (IX+5),0x00

; --- L4074 ---
  4074  CD 80 94    CALL L9480
  4077  CD 5E 8F    CALL L8F5E
  407A  06 01       LD B,0x01
  407C  CD 93 93    CALL L9393
  407F  CD 63 46    CALL L4663
  4082  CD 2C BF    CALL LBF2C
  4085  3A 02 E1    LD A,(0xe102)
  4088  CB 6F       BIT 5,A
  408A  C2 DA 40    JP NZ,L40DA
  408D  CB 5F       BIT 3,A
  408F  C2 D5 46    JP NZ,L46D5
  4092  CB 7F       BIT 7,A
  4094  C2 42 40    JP NZ,L4042
  4097  CB 67       BIT 4,A
  4099  C4 BA 41    CALL NZ,L41BA
  409C  CB 77       BIT 6,A
  409E  CA 74 40    JP Z,L4074
  40A1  CB B7       RES 6,A
  40A3  32 02 E1    LD (0xe102),A
  40A6  06 40       LD B,0x40

; --- L40A8 ---
  40A8  C5          PUSH BC
  40A9  CD 80 94    CALL L9480
  40AC  CD 5E 8F    CALL L8F5E
  40AF  06 01       LD B,0x01
  40B1  CD 93 93    CALL L9393
  40B4  C1          POP BC
  40B5  10 F1       DJNZ L40A8
  40B7  C3 68 40    JP L4068

; --- L40BA ---
  40BA  DD 21 A0 E3 LD IX,0xe3a0
  40BE  06 15       LD B,0x15
  40C0  11 20 00    LD DE,0x0020

; --- L40C3 ---
  40C3  DD 7E 00    LD A,(IX+0)
  40C6  E6 7F       AND 0x7f
  40C8  28 04       JR Z,L40CE
  40CA  DD 36 00 28 LD (IX+0),0x28

; --- L40CE ---
  40CE  DD 19       ADD IX,DE
  40D0  10 F1       DJNZ L40C3
  40D2  97          SUB A
  40D3  32 50 E1    LD (0xe150),A
  40D6  32 32 E1    LD (0xe132),A
  40D9  C9          RET

; --- L40DA ---
  40DA  CD BA 40    CALL L40BA
  40DD  2A 22 E7    LD HL,(0xe722)
  40E0  7C          LD A,H
  40E1  B5          OR L
  40E2  CA 4D 41    JP Z,L414D
  40E5  CD 6C 51    CALL L516C
  40E8  3E 0B       LD A,0x0b
  40EA  CD 89 51    CALL L5189
  40ED  CD 44 94    CALL L9444
  40F0  E5          PUSH HL
  40F1  F5          PUSH AF
  40F2  CD 5F 44    CALL L445F
  40F5  CD ED 42    CALL L42ED
  40F8  21 00 E8    LD HL,0xe800
  40FB  36 00       LD (HL),0x00
  40FD  11 01 E8    LD DE,0xe801
  4100  01 3F 02    LD BC,0x023f
  4103  ED B0       LDIR
  4105  CD 77 41    CALL L4177
  4108  06 64       LD B,0x64
  410A  CD EC 5B    CALL L5BEC
  410D  CD ED 42    CALL L42ED
  4110  CD CB 41    CALL L41CB
  4113  21 01 E7    LD HL,0xe701
  4116  F1          POP AF
  4117  46          LD B,(HL)
  4118  77          LD (HL),A
  4119  E6 07       AND 0x07
  411B  20 1D       JR NZ,L413A
  411D  78          LD A,B
  411E  E6 07       AND 0x07
  4120  28 08       JR Z,L412A
  4122  CD 60 5C    CALL L5C60
  4125  CD 6C 51    CALL L516C
  4128  18 10       JR L413A

; --- L412A ---
  412A  CD 6C 51    CALL L516C
  412D  CD A5 5C    CALL L5CA5
  4130  CD 3C 5C    CALL L5C3C
  4133  3E 0A       LD A,0x0a
  4135  CD 89 51    CALL L5189
  4138  18 03       JR L413D

; --- L413A ---
  413A  CD 63 41    CALL L4163

; --- L413D ---
  413D  E1          POP HL
  413E  CD 0C 94    CALL L940C
  4141  CD E4 9A    CALL L9AE4
  4144  CD 6E 94    CALL L946E
  4147  CD 77 41    CALL L4177
  414A  CD 4D 4C    CALL L4C4D

; --- L414D ---
  414D  21 02 E1    LD HL,0xe102
  4150  CB AE       RES 5,(HL)
  4152  21 32 E1    LD HL,0xe132
  4155  7E          LD A,(HL)
  4156  C6 20       ADD A,0x20
  4158  77          LD (HL),A
  4159  30 02       JR NC,L415D
  415B  36 FF       LD (HL),0xff

; --- L415D ---
  415D  CD D6 BF    CALL LBFD6
  4160  C3 74 40    JP L4074

; --- L4163 ---
  4163  3A 02 E1    LD A,(0xe102)
  4166  CB 7F       BIT 7,A
  4168  C0          RET NZ
  4169  3A 01 E7    LD A,(0xe701)
  416C  E6 07       AND 0x07
  416E  3E 01       LD A,0x01
  4170  C2 89 51    JP NZ,L5189
  4173  3C          INC A
  4174  C3 89 51    JP L5189

; --- L4177 ---
  4177  21 00 E7    LD HL,0xe700
  417A  CB 86       RES 0,(HL)
  417C  01 40 02    LD BC,0x0240
  417F  21 00 00    LD HL,0x0000

; --- L4182 ---
  4182  C5          PUSH BC
  4183  E5          PUSH HL
  4184  CB 24       SLA H
  4186  CB 24       SLA H
  4188  CB 24       SLA H
  418A  CB 25       SLA L
  418C  CB 25       SLA L
  418E  CB 25       SLA L
  4190  CD 48 89    CALL L8948
  4193  EB          EX DE,HL
  4194  CD ED 42    CALL L42ED
  4197  CD 53 00    CALL 0x0053   ; BIOS:SETWRT
  419A  1A          LD A,(DE)
  419B  CD FC 5B    CALL L5BFC
  419E  CD F8 42    CALL L42F8
  41A1  E1          POP HL
  41A2  C1          POP BC
  41A3  25          DEC H
  41A4  F2 AA 41    JP P,L41AA
  41A7  26 17       LD H,0x17
  41A9  2D          DEC L

; --- L41AA ---
  41AA  7D          LD A,L
  41AB  D6 05       SUB 0x05
  41AD  6F          LD L,A
  41AE  F2 B4 41    JP P,L41B4
  41B1  C6 18       ADD A,0x18
  41B3  6F          LD L,A

; --- L41B4 ---
  41B4  0B          DEC BC
  41B5  78          LD A,B
  41B6  B1          OR C
  41B7  20 C9       JR NZ,L4182
  41B9  C9          RET

; --- L41BA ---
  41BA  DD 21 00 E1 LD IX,0xe100
  41BE  DD 35 5E    DEC (IX+94)
  41C1  C0          RET NZ
  41C2  CD CB 41    CALL L41CB
  41C5  21 02 E1    LD HL,0xe102
  41C8  CB A6       RES 4,(HL)
  41CA  C9          RET

; --- L41CB ---
  41CB  21 80 E1    LD HL,0xe180
  41CE  06 30       LD B,0x30

; --- L41D0 ---
  41D0  36 00       LD (HL),0x00
  41D2  23          INC HL
  41D3  10 FB       DJNZ L41D0
  41D5  21 00 E7    LD HL,0xe700
  41D8  CB C6       SET 0,(HL)
  41DA  C9          RET

; --- L41DB ---
  41DB  CD D7 42    CALL L42D7
  41DE  CD 6C 51    CALL L516C
  41E1  DD 21 00 E1 LD IX,0xe100
  41E5  DD 36 0A 03 LD (IX+10),0x03
  41E9  AF          XOR A
  41EA  6F          LD L,A
  41EB  67          LD H,A
  41EC  22 03 E1    LD (0xe103),HL
  41EF  22 04 E1    LD (0xe104),HL
  41F2  DD 77 02    LD (IX+2),A
  41F5  DD 36 17 02 LD (IX+23),0x02
  41F9  DD 36 24 06 LD (IX+36),0x06
  41FD  DD 77 25    LD (IX+37),A
  4200  DD 77 2E    LD (IX+46),A
  4203  DD 77 2F    LD (IX+47),A
  4206  DD 77 32    LD (IX+50),A
  4209  DD 77 48    LD (IX+72),A
  420C  DD 77 26    LD (IX+38),A
  420F  DD 77 31    LD (IX+49),A
  4212  DD 77 41    LD (IX+65),A
  4215  DD 77 3F    LD (IX+63),A
  4218  DD 77 11    LD (IX+17),A
  421B  DD 36 12 20 LD (IX+18),0x20
  421F  DD 77 13    LD (IX+19),A
  4222  DD 77 40    LD (IX+64),A
  4225  DD 36 2D 03 LD (IX+45),0x03
  4229  DD 77 46    LD (IX+70),A
  422C  DD 77 50    LD (IX+80),A
  422F  CD CB 41    CALL L41CB
  4232  DD 21 00 E7 LD IX,0xe700
  4236  21 24 A6    LD HL,0xa624
  4239  22 B4 E2    LD (0xe2b4),HL
  423C  21 3C A6    LD HL,0xa63c
  423F  22 B6 E2    LD (0xe2b6),HL
  4242  DD 77 00    LD (IX+0),A
  4245  DD 36 12 34 LD (IX+18),0x34
  4249  CD ED 42    CALL L42ED
  424C  CD D2 43    CALL L43D2
  424F  F5          PUSH AF
  4250  CD 8A 42    CALL L428A
  4253  F1          POP AF
  4254  28 04       JR Z,L425A
  4256  DD 36 01 01 LD (IX+1),0x01

; --- L425A ---
  425A  3E 08       LD A,0x08
  425C  DD 96 01    SUB (IX+1)
  425F  F5          PUSH AF
  4260  E6 07       AND 0x07
  4262  CC 60 5C    CALL Z,L5C60
  4265  F1          POP AF
  4266  87          ADD A,A
  4267  5F          LD E,A
  4268  16 00       LD D,0x00
  426A  21 5C 94    LD HL,0x945c
  426D  19          ADD HL,DE
  426E  5E          LD E,(HL)
  426F  23          INC HL
  4270  56          LD D,(HL)
  4271  EB          EX DE,HL
  4272  CD 05 94    CALL L9405
  4275  CD E4 9A    CALL L9AE4
  4278  CD 6E 94    CALL L946E
  427B  CD D4 4B    CALL L4BD4
  427E  CD AF 49    CALL L49AF
  4281  CD A7 49    CALL L49A7
  4284  CD C8 BF    CALL LBFC8
  4287  C3 4D 4C    JP L4C4D

; --- L428A ---
  428A  CD BA 42    CALL L42BA
  428D  CD A5 5C    CALL L5CA5
  4290  21 00 38    LD HL,0x3800
  4293  01 00 03    LD BC,0x0300
  4296  3E 20       LD A,0x20
  4298  CD 56 00    CALL 0x0056   ; BIOS:FILVRM
  429B  21 80 3B    LD HL,0x3b80
  429E  3E D0       LD A,0xd0
  42A0  CD 4D 00    CALL 0x004D   ; BIOS:WRTVRM
  42A3  97          SUB A
  42A4  32 1F E1    LD (0xe11f),A
  42A7  32 20 E1    LD (0xe120),A
  42AA  06 20       LD B,0x20
  42AC  21 00 E3    LD HL,0xe300

; --- L42AF ---
  42AF  3E 20       LD A,0x20

; --- L42B1 ---
  42B1  36 00       LD (HL),0x00
  42B3  23          INC HL
  42B4  3D          DEC A
  42B5  20 FA       JR NZ,L42B1
  42B7  10 F6       DJNZ L42AF
  42B9  C9          RET

; --- L42BA ---
  42BA  CD 3E 01    CALL 0x013E   ; BIOS:RDVDP
  42BD  21 CF 42    LD HL,0x42cf
  42C0  16 08       LD D,0x08
  42C2  1E 00       LD E,0x00

; --- L42C4 ---
  42C4  4B          LD C,E
  42C5  46          LD B,(HL)
  42C6  CD 47 00    CALL 0x0047   ; BIOS:WRTVDP
  42C9  23          INC HL
  42CA  1C          INC E
  42CB  15          DEC D
  42CC  20 F6       JR NZ,L42C4
  42CE  C9          RET
  42CF  DB 0x02, 0x82, 0x0E, 0xFF, 0x03, 0x77, 0x03, 0x01 ; .....w..

; --- L42D7 ---
  42D7  C5          PUSH BC
  42D8  ED 4B DF F3 LD BC,(0xf3df)
  42DC  0E 01       LD C,0x01
  42DE  CB B0       RES 6,B
  42E0  18 1F       JR L4301

; --- L42E2 ---
  42E2  C5          PUSH BC
  42E3  ED 4B DF F3 LD BC,(0xf3df)
  42E7  0E 01       LD C,0x01
  42E9  CB F0       SET 6,B
  42EB  18 14       JR L4301

; --- L42ED ---
  42ED  C5          PUSH BC
  42EE  ED 4B DF F3 LD BC,(0xf3df)
  42F2  0E 01       LD C,0x01
  42F4  CB A8       RES 5,B
  42F6  18 09       JR L4301

; --- L42F8 ---
  42F8  C5          PUSH BC
  42F9  ED 4B DF F3 LD BC,(0xf3df)
  42FD  0E 01       LD C,0x01
  42FF  CB E8       SET 5,B

; --- L4301 ---
  4301  CD 47 00    CALL 0x0047   ; BIOS:WRTVDP
  4304  C1          POP BC
  4305  C9          RET

; --- L4306 ---
  4306  CD F8 42    CALL L42F8
  4309  3A F8 E1    LD A,(0xe1f8)
  430C  D6 01       SUB 0x01
  430E  38 F6       JR C,L4306
  4310  97          SUB A
  4311  32 F8 E1    LD (0xe1f8),A
  4314  C3 F8 42    JP L42F8
  4317  DB 0x06, 0x08, 0x21, 0x00, 0x00, 0x55, 0xCB, 0x1F ; ..!..U..
  431F  DB 0x30, 0x01, 0x19, 0xCB, 0x23, 0xCB, 0x12, 0x10 ; 0...#...
  4327  DB 0xF5, 0xC9, 0x06, 0x08, 0xAF, 0xED, 0x6A, 0x7C ; ......j|
  432F  DB 0x38, 0x03, 0xBB, 0x38, 0x03, 0x93, 0x67, 0xAF ; 8..8..g.
  4337  DB 0x3F, 0x10, 0xF2, 0xCB, 0x15, 0xCB, 0x24, 0x7C ; ?.....$|
  433F  DB 0x93, 0xD8, 0x2C, 0xC9                   ; ..,.

; --- L4343 ---
  4343  CD ED 42    CALL L42ED
  4346  3E 0F       LD A,0x0f
  4348  1E 8F       LD E,0x8f
  434A  CD 93 00    CALL 0x0093   ; BIOS:WRTPSG
  434D  3E 0E       LD A,0x0e
  434F  CD 96 00    CALL 0x0096   ; BIOS:RDPSG
  4352  21 00 E1    LD HL,0xe100
  4355  77          LD (HL),A
  4356  3E 0F       LD A,0x0f
  4358  1E CF       LD E,0xcf
  435A  CD 93 00    CALL 0x0093   ; BIOS:WRTPSG
  435D  3E 0E       LD A,0x0e
  435F  CD 96 00    CALL 0x0096   ; BIOS:RDPSG
  4362  A6          AND (HL)
  4363  77          LD (HL),A
  4364  3E 08       LD A,0x08
  4366  CD 41 01    CALL 0x0141   ; BIOS:SNSMAT
  4369  CB 47       BIT 0,A
  436B  20 04       JR NZ,L4371
  436D  CB A6       RES 4,(HL)
  436F  CB AE       RES 5,(HL)

; --- L4371 ---
  4371  CB 6F       BIT 5,A
  4373  20 02       JR NZ,L4377
  4375  CB 86       RES 0,(HL)

; --- L4377 ---
  4377  CB 77       BIT 6,A
  4379  20 02       JR NZ,L437D
  437B  CB 8E       RES 1,(HL)

; --- L437D ---
  437D  CB 67       BIT 4,A
  437F  20 02       JR NZ,L4383
  4381  CB 96       RES 2,(HL)

; --- L4383 ---
  4383  CB 7F       BIT 7,A
  4385  20 02       JR NZ,L4389
  4387  CB 9E       RES 3,(HL)

; --- L4389 ---
  4389  3E 06       LD A,0x06
  438B  CD 41 01    CALL 0x0141   ; BIOS:SNSMAT
  438E  CB 47       BIT 0,A
  4390  20 02       JR NZ,L4394
  4392  CB A6       RES 4,(HL)

; --- L4394 ---
  4394  3E 05       LD A,0x05
  4396  CD 41 01    CALL 0x0141   ; BIOS:SNSMAT
  4399  CB 7F       BIT 7,A
  439B  20 02       JR NZ,L439F
  439D  CB AE       RES 5,(HL)

; --- L439F ---
  439F  4E          LD C,(HL)
  43A0  3E 04       LD A,0x04
  43A2  CB 41       BIT 0,C
  43A4  20 02       JR NZ,L43A8
  43A6  C6 01       ADD A,0x01

; --- L43A8 ---
  43A8  CB 49       BIT 1,C
  43AA  20 02       JR NZ,L43AE
  43AC  D6 01       SUB 0x01

; --- L43AE ---
  43AE  CB 51       BIT 2,C
  43B0  20 02       JR NZ,L43B4
  43B2  D6 03       SUB 0x03

; --- L43B4 ---
  43B4  CB 59       BIT 3,C
  43B6  20 02       JR NZ,L43BA
  43B8  C6 03       ADD A,0x03

; --- L43BA ---
  43BA  32 0C E1    LD (0xe10c),A
  43BD  C3 F8 42    JP L42F8
  43C0  DB 0xED, 0x5F, 0x2A, 0x2B, 0xE1, 0x84, 0x67, 0x85 ; ._*+..g.
  43C8  DB 0x6C, 0x67, 0xCB, 0x04, 0xCB, 0x0D, 0x22, 0x2B ; lg...."+
  43D0  DB 0xE1, 0xC9                               ; ..

; --- L43D2 ---
  43D2  3E 07       LD A,0x07
  43D4  CD 41 01    CALL 0x0141   ; BIOS:SNSMAT
  43D7  CB 57       BIT 2,A
  43D9  C9          RET
  43DA  DB 0xF1, 0xCD, 0x3E, 0x01, 0x08, 0xCD, 0xED, 0x42 ; ..>....B
  43E2  DB 0x21, 0xF8, 0xE1, 0x34, 0xED, 0x4B, 0x07, 0x00 ; !..4.K..
  43EA  DB 0x21, 0x80, 0x3B, 0xCD, 0x53, 0x00, 0x3A, 0x1F ; !.;.S.:.
  43F2  DB 0xE1, 0xD6, 0x00, 0x28, 0x49, 0x47, 0x08, 0xCB ; ...(IG..
  43FA  DB 0x77, 0x28, 0x08, 0x21, 0x27, 0xE1, 0x34, 0xCB ; w(.!'.4.
  4402  DB 0x46, 0x28, 0x0D, 0x21, 0x00, 0xE0, 0xED, 0xA3 ; F(.!....
  440A  DB 0x3A, 0x00, 0x00, 0x1A, 0x20, 0xF8, 0x18, 0x2E ; :... ...
  4412  DB 0x21, 0x00, 0xE0, 0xC5, 0x48, 0x06, 0x00, 0x09 ; !...H...
  441A  DB 0x11, 0x04, 0x00, 0x19, 0x11, 0xF8, 0xFF, 0xC1 ; ........
  4422  DB 0x19, 0x7E, 0xED, 0xA3, 0xDD, 0x7E, 0x00, 0x3A ; .~...~.:
  442A  DB 0x00, 0x00, 0xED, 0xA3, 0xDD, 0x7E, 0x00, 0x3A ; .....~.:
  4432  DB 0x00, 0x00, 0xED, 0xA3, 0xDD, 0x7E, 0x00, 0x3A ; .....~.:
  443A  DB 0x00, 0x00, 0xED, 0xA3, 0x20, 0xE2, 0xDD, 0x7E ; .... ..~
  4442  DB 0x00, 0x3A, 0x00, 0x00, 0x3E, 0xD0, 0xED, 0x79 ; .:..>..y
  444A  DB 0xCD, 0x79, 0x9A, 0xCD, 0x7B, 0x4E, 0xDD, 0xE1 ; .y..{N..
  4452  DB 0xFD, 0xE1, 0xF1, 0xC1, 0xD1, 0xE1, 0x08, 0xD9 ; ........
  445A  DB 0xF1, 0xC1, 0xD1, 0xE1, 0xC9             ; .....

; --- L445F ---
  445F  21 00 E0    LD HL,0xe000
  4462  22 22 E1    LD (0xe122),HL
  4465  06 1A       LD B,0x1a
  4467  DD 21 00 E3 LD IX,0xe300

; --- L446B ---
  446B  CD F8 42    CALL L42F8
  446E  C5          PUSH BC
  446F  DD 7E 00    LD A,(IX+0)
  4472  B7          OR A
  4473  CA 87 44    JP Z,L4487
  4476  87          ADD A,A
  4477  6F          LD L,A
  4478  26 00       LD H,0x00
  447A  11 B7 70    LD DE,0x70b7
  447D  19          ADD HL,DE
  447E  7E          LD A,(HL)
  447F  23          INC HL
  4480  66          LD H,(HL)
  4481  6F          LD L,A
  4482  01 87 44    LD BC,0x4487
  4485  C5          PUSH BC
  4486  E9          JP (HL)

; --- L4487 ---
  4487  01 20 00    LD BC,0x0020
  448A  DD 09       ADD IX,BC
  448C  C1          POP BC
  448D  10 DC       DJNZ L446B
  448F  3A 22 E1    LD A,(0xe122)
  4492  32 1F E1    LD (0xe11f),A
  4495  C9          RET

; --- L4496 ---
  4496  21 A0 E3    LD HL,0xe3a0
  4499  11 20 00    LD DE,0x0020
  449C  06 15       LD B,0x15

; --- L449E ---
  449E  7E          LD A,(HL)
  449F  B7          OR A
  44A0  C8          RET Z
  44A1  19          ADD HL,DE
  44A2  10 FA       DJNZ L449E
  44A4  37          SCF
  44A5  C9          RET
  44A6  DB 0xCD, 0xA0, 0x45, 0xCD, 0xD4, 0x44, 0xD0, 0xC3 ; ..E..D..
  44AE  DB 0x3E, 0x45, 0xCD, 0xA0, 0x45, 0xCD, 0xEA, 0x44 ; >E..E..D
  44B6  DB 0xD0, 0xC3, 0x3E, 0x45, 0xCD, 0xA0, 0x45, 0xCD ; ..>E..E.
  44BE  DB 0xD4, 0x44, 0xDA, 0x3E, 0x45, 0xCD, 0xF9, 0x44 ; .D.>E..D
  44C6  DB 0xD0, 0xC3, 0x3E, 0x45, 0xCD, 0xA0, 0x45, 0xCD ; ..>E..E.
  44CE  DB 0xF9, 0x44, 0xD0, 0xC3, 0x3E, 0x45, 0x3A, 0x4E ; .D..>E:N
  44D6  DB 0xE1, 0xE6, 0x01, 0x28, 0x0F, 0xFD, 0x21, 0x80 ; ...(..!.
  44DE  DB 0xE3, 0xFD, 0x7E, 0x00, 0xFE, 0x83, 0x20, 0x04 ; ..~... .
  44E6  DB 0xCD, 0x60, 0x45, 0xD8, 0x3A, 0x00, 0xE3, 0xFE ; .`E.:...
  44EE  DB 0x81, 0x20, 0x4B, 0xFD, 0x21, 0x00, 0xE3, 0xCD ; . K.!...
  44F6  DB 0x60, 0x45, 0xC9, 0xFD, 0x21, 0x20, 0xE3, 0xFD ; `E..! ..
  44FE  DB 0x7E, 0x00, 0xFE, 0x82, 0x20, 0x04, 0xCD, 0x60 ; ~... ..`
  4506  DB 0x45, 0xD8, 0xFD, 0x21, 0x40, 0xE3, 0xFD, 0x7E ; E..!@..~
  450E  DB 0x00, 0xFE, 0x82, 0x20, 0x04, 0xCD, 0x60, 0x45 ; ... ..`E
  4516  DB 0xD8, 0xFD, 0x21, 0x60, 0xE3, 0xFD, 0x7E, 0x00 ; ..!`..~.
  451E  DB 0xFE, 0x82, 0x20, 0x04, 0xCD, 0x60, 0x45, 0xC9 ; .. ..`E.
  4526  DB 0x3A, 0x4E, 0xE1, 0xCB, 0x4F, 0x28, 0x0F, 0xFD ; :N..O(..
  452E  DB 0x21, 0x80, 0xE3, 0xFD, 0x7E, 0x00, 0xFE, 0x83 ; !...~...
  4536  DB 0x20, 0x04, 0xCD, 0x60, 0x45, 0xC9, 0xB7, 0xC9 ;  ..`E...
  453E  DB 0xDD, 0x7E, 0x00, 0xE6, 0x7F, 0xDD, 0x77, 0x18 ; .~....w.
  4546  DB 0x5F, 0x16, 0x00, 0x21, 0x6B, 0x71, 0x19, 0x7E ; _..!kq.~
  454E  DB 0xDD, 0x77, 0x00, 0xFD, 0x7E, 0x00, 0xE6, 0x7F ; .w..~...
  4556  DB 0x5F, 0x21, 0x6B, 0x71, 0x19, 0x7E, 0xFD, 0x77 ; _!kq.~.w
  455E  DB 0x00, 0xC9, 0xB7, 0xFD, 0x7E, 0x03, 0xCB, 0x3F ; ....~..?
  4566  DB 0x5F, 0x16, 0x00, 0x21, 0xC9, 0x45, 0x19, 0xFD ; _..!.E..
  456E  DB 0x7E, 0x01, 0xFE, 0xF0, 0xD0, 0x57, 0x5E, 0x83 ; ~....W^.
  4576  DB 0xB8, 0xD2, 0x83, 0x45, 0x7A, 0xC6, 0x10, 0x93 ; ...Ez...
  457E  DB 0xB8, 0x3F, 0xD0, 0x18, 0x02, 0xB9, 0xD0, 0x23 ; .?.....#
  4586  DB 0x7E, 0xD9, 0x5F, 0xFD, 0x7E, 0x02, 0xFE, 0xF0 ; ~._.~...
  458E  DB 0xD0, 0x57, 0x83, 0xB8, 0xD2, 0x9D, 0x45, 0x7A ; .W....Ez
  4596  DB 0xC6, 0x10, 0x93, 0xB8, 0x3F, 0xD9, 0xC9, 0xB9 ; ....?...
  459E  DB 0xD9, 0xC9, 0xDD, 0x7E, 0x03, 0xCB, 0x3F, 0x5F ; ...~..?_
  45A6  DB 0x16, 0x00, 0x21, 0xC9, 0x45, 0x19, 0xDD, 0x7E ; ..!.E..~
  45AE  DB 0x01, 0x57, 0x5E, 0x83, 0x47, 0x7A, 0xC6, 0x10 ; .W^.Gz..
  45B6  DB 0x93, 0x23, 0x4F, 0xC5, 0xDD, 0x7E, 0x02, 0x57 ; .#O..~.W
  45BE  DB 0x5E, 0x83, 0x47, 0x7A, 0xC6, 0x10, 0x93, 0x4F ; ^.Gz...O
  45C6  DB 0xD9, 0xC1, 0xC9, 0x00, 0x00, 0x03, 0x03, 0x00 ; ........
  45CE  DB 0x00, 0x00, 0x00, 0x00, 0x00, 0x03, 0x03, 0x05 ; ........
  45D6  DB 0x00, 0x06, 0x06, 0x01, 0x01, 0x00, 0x00, 0x00 ; ........
  45DE  DB 0x06, 0x00, 0x03, 0x00, 0x00, 0x02, 0x02, 0x04 ; ........
  45E6  DB 0x04, 0x04, 0x04, 0x02, 0x01, 0x02, 0x01, 0x00 ; ........
  45EE  DB 0x03, 0x00, 0x03, 0x00, 0x02, 0x00, 0x02, 0x00 ; ........
  45F6  DB 0x03, 0x00, 0x00, 0x02, 0x02, 0x00, 0x00, 0x00 ; ........
  45FE  DB 0x01, 0x02, 0x01, 0x02, 0x06, 0x00, 0x01, 0x00 ; ........
  4606  DB 0x01, 0x00, 0x00, 0x00, 0x00, 0x02, 0x00, 0x04 ; ........
  460E  DB 0x00, 0x06, 0x00, 0x04, 0x00, 0x02, 0x00, 0x00 ; ........
  4616  DB 0x00, 0x00, 0x00, 0x00, 0x00, 0x00, 0x00, 0x00 ; ........
  461E  DB 0x00, 0x02, 0x01, 0x02, 0x03, 0x02, 0x07, 0x02 ; ........
  4626  DB 0x03, 0x02, 0x01, 0x00, 0x00, 0x00, 0x00, 0x00 ; ........
  462E  DB 0x00, 0x00, 0x00, 0x00, 0x00, 0x00, 0x00, 0x00 ; ........
  4636  DB 0x00, 0x01, 0x02, 0x00, 0x01, 0x00, 0x00, 0x00 ; ........
  463E  DB 0x00, 0x00, 0x03, 0x00, 0x03, 0x00, 0x02, 0x00 ; ........
  4646  DB 0x02, 0x00, 0x02                         ; ...

; --- L4649 ---
  4649  21 02 E1    LD HL,0xe102
  464C  CB 46       BIT 0,(HL)
  464E  C8          RET Z
  464F  CB 86       RES 0,(HL)
  4651  3A 0A E1    LD A,(0xe10a)
  4654  3D          DEC A
  4655  32 0A E1    LD (0xe10a),A
  4658  20 03       JR NZ,L465D
  465A  CB CE       SET 1,(HL)
  465C  C9          RET

; --- L465D ---
  465D  CB F6       SET 6,(HL)
  465F  CD 4D 4C    CALL L4C4D
  4662  C9          RET

; --- L4663 ---
  4663  21 02 E1    LD HL,0xe102
  4666  CB 4E       BIT 1,(HL)
  4668  C8          RET Z
  4669  CB FE       SET 7,(HL)
  466B  E5          PUSH HL
  466C  CD BA 40    CALL L40BA
  466F  CD ED 42    CALL L42ED
  4672  CD CE 4A    CALL L4ACE
  4675  E1          POP HL
  4676  CD 6C 51    CALL L516C
  4679  3E 04       LD A,0x04
  467B  CD 89 51    CALL L5189
  467E  FD 21 80 E1 LD IY,0xe180
  4682  FD 36 0C 07 LD (IY+12),0x07
  4686  FD 36 24 12 LD (IY+36),0x12
  468A  21 87 39    LD HL,0x3987
  468D  CD 25 5C    CALL L5C25
  4690  20 47       JR NZ,L46D9
  4692  41          LD B,C
  4693  4D          LD C,L
  4694  45          LD B,L
  4695  20 4F       JR NZ,L46E6
  4697  56          LD D,(HL)
  4698  45          LD B,L
  4699  52          LD D,D
  469A  20 00       JR NZ,L469C

; --- L469C ---
  469C  CD BC 46    CALL L46BC
  469F  01 20 03    LD BC,0x0320
  46A2  CD A8 46    CALL L46A8
  46A5  C3 F8 42    JP L42F8

; --- L46A8 ---
  46A8  C5          PUSH BC
  46A9  CD 80 94    CALL L9480
  46AC  06 01       LD B,0x01
  46AE  CD 93 93    CALL L9393
  46B1  CD BC 46    CALL L46BC
  46B4  C1          POP BC
  46B5  D8          RET C
  46B6  0B          DEC BC
  46B7  78          LD A,B
  46B8  B1          OR C
  46B9  20 ED       JR NZ,L46A8
  46BB  C9          RET

; --- L46BC ---
  46BC  CD 43 43    CALL L4343
  46BF  21 47 E1    LD HL,0xe147
  46C2  3A 00 E1    LD A,(0xe100)
  46C5  E6 30       AND 0x30
  46C7  FE 30       CP 0x30
  46C9  CB 46       BIT 0,(HL)
  46CB  CB 86       RES 0,(HL)
  46CD  38 01       JR C,L46D0
  46CF  C9          RET

; --- L46D0 ---
  46D0  CB C6       SET 0,(HL)
  46D2  C8          RET Z
  46D3  3F          CCF
  46D4  C9          RET

; --- L46D5 ---
  46D5  DD 21 00 E1 LD IX,0xe100

; --- L46D9 ---
  46D9  DD 36 5C 00 LD (IX+92),0x00
  46DD  CD CE 4A    CALL L4ACE

; --- L46E0 ---
  46E0  DD 21 00 E1 LD IX,0xe100
  46E4  DD 4E 5C    LD C,(IX+92)
  46E7  06 00       LD B,0x00
  46E9  21 75 47    LD HL,0x4775
  46EC  09          ADD HL,BC
  46ED  FD 21 85 E1 LD IY,0xe185
  46F1  DD 36 5D 05 LD (IX+93),0x05

; --- L46F5 ---
  46F5  46          LD B,(HL)
  46F6  E5          PUSH HL
  46F7  21 AA 47    LD HL,0x47aa
  46FA  78          LD A,B
  46FB  A7          AND A
  46FC  28 07       JR Z,L4705

; --- L46FE ---
  46FE  5E          LD E,(HL)
  46FF  1C          INC E
  4700  16 00       LD D,0x00
  4702  19          ADD HL,DE
  4703  10 F9       DJNZ L46FE

; --- L4705 ---
  4705  7E          LD A,(HL)
  4706  A7          AND A
  4707  28 32       JR Z,L473B
  4709  C6 02       ADD A,0x02
  470B  CB 3F       SRL A
  470D  2F          CPL
  470E  C6 0D       ADD A,0x0d
  4710  F3          DI
  4711  FD 77 00    LD (IY+0),A
  4714  57          LD D,A
  4715  86          ADD A,(HL)
  4716  C6 02       ADD A,0x02
  4718  FD 77 18    LD (IY+24),A
  471B  FB          EI
  471C  E5          PUSH HL
  471D  DD 6E 5D    LD L,(IX+93)
  4720  62          LD H,D
  4721  CD DD 5B    CALL L5BDD
  4724  CD ED 42    CALL L42ED
  4727  CD 53 00    CALL 0x0053   ; BIOS:SETWRT
  472A  E1          POP HL
  472B  46          LD B,(HL)
  472C  3E 20       LD A,0x20
  472E  04          INC B

; --- L472F ---
  472F  CD FC 5B    CALL L5BFC
  4732  23          INC HL
  4733  7E          LD A,(HL)
  4734  10 F9       DJNZ L472F
  4736  3E 20       LD A,0x20
  4738  CD FC 5B    CALL L5BFC

; --- L473B ---
  473B  E1          POP HL
  473C  23          INC HL
  473D  FD 23       INC IY
  473F  DD 34 5D    INC (IX+93)
  4742  DD 34 5C    INC (IX+92)
  4745  7E          LD A,(HL)
  4746  FE FF       CP 0xff
  4748  20 AB       JR NZ,L46F5
  474A  DD 34 5C    INC (IX+92)
  474D  23          INC HL
  474E  7E          LD A,(HL)
  474F  D6 FF       SUB 0xff
  4751  01 90 01    LD BC,0x0190
  4754  20 06       JR NZ,L475C
  4756  DD 77 5C    LD (IX+92),A
  4759  01 B0 04    LD BC,0x04b0

; --- L475C ---
  475C  CD A8 46    CALL L46A8
  475F  38 FB       JR C,L475C
  4761  CD CB 41    CALL L41CB
  4764  01 50 00    LD BC,0x0050

; --- L4767 ---
  4767  CD A8 46    CALL L46A8
  476A  38 FB       JR C,L4767
  476C  CD D2 43    CALL L43D2
  476F  CA 42 40    JP Z,L4042
  4772  C3 E0 46    JP L46E0
  4775  DB 0x01, 0x00, 0x06, 0x0A, 0x07, 0xFF, 0x02, 0x00 ; ........
  477D  DB 0x0A, 0x07, 0xFF, 0x10, 0x00, 0x0B, 0xFF, 0x04 ; ........
  4785  DB 0x00, 0x07, 0xFF, 0x04, 0x02, 0x00, 0x07, 0xFF ; ........
  478D  DB 0x03, 0x00, 0x06, 0x0C, 0xFF, 0x0E, 0x00, 0x0F ; ........
  4795  DB 0x11, 0x09, 0xFF, 0x17, 0x12, 0x13, 0x14, 0x15 ; ........
  479D  DB 0x16, 0x17, 0x00, 0x05, 0x00, 0x0A, 0x00, 0x00 ; ........
  47A5  DB 0x0D, 0x08, 0x0D, 0xFF, 0xFF, 0x00, 0x0B, 0x47 ; .......G
  47AD  DB 0x41, 0x4D, 0x45, 0x20, 0x44, 0x45, 0x53, 0x49 ; AME DESI
  47B5  DB 0x47, 0x4E, 0x07, 0x50, 0x52, 0x4F, 0x47, 0x52 ; GN.PROGR
  47BD  DB 0x41, 0x4D, 0x08, 0x47, 0x52, 0x41, 0x50, 0x48 ; AM.GRAPH
  47C5  DB 0x49, 0x43, 0x53, 0x05, 0x53, 0x4F, 0x55, 0x4E ; ICS.SOUN
  47CD  DB 0x44, 0x08, 0x44, 0x49, 0x52, 0x45, 0x43, 0x54 ; D.DIRECT
  47D5  DB 0x4F, 0x52, 0x05, 0x4A, 0x41, 0x4E, 0x55, 0x53 ; OR.JANUS
  47DD  DB 0x06, 0x4A, 0x45, 0x4D, 0x49, 0x4E, 0x49, 0x07 ; .JEMINI.
  47E5  DB 0x43, 0x4F, 0x4D, 0x50, 0x49, 0x4C, 0x45, 0x03 ; COMPILE.
  47ED  DB 0x57, 0x41, 0x4F, 0x03, 0x4D, 0x4F, 0x4F, 0x08 ; WAO.MOO.
  47F5  DB 0x4D, 0x49, 0x59, 0x41, 0x4D, 0x4F, 0x54, 0x4F ; MIYAMOTO
  47FD  DB 0x06, 0x59, 0x4F, 0x52, 0x49, 0x4B, 0x49, 0x07 ; .YORIKI.
  4805  DB 0x20, 0x20, 0x20, 0x20, 0x20, 0x20, 0x20, 0x06 ;        .
  480D  DB 0x54, 0x48, 0x41, 0x4E, 0x4B, 0x53, 0x03, 0x50 ; THANKS.P
  4815  DB 0x41, 0x4C, 0x05, 0x4D, 0x55, 0x53, 0x49, 0x43 ; AL.MUSIC
  481D  DB 0x08, 0x4C, 0x55, 0x4E, 0x41, 0x52, 0x49, 0x41 ; .LUNARIA
  4825  DB 0x4E, 0x12, 0x20, 0xB0, 0xB1, 0xB2, 0xB3, 0xB4 ; N. .....
  482D  DB 0xB5, 0xB6, 0xB7, 0xB8, 0xB9, 0xBA, 0xBB, 0xBC ; ........
  4835  DB 0xB2, 0xB2, 0xBD, 0x20, 0x12, 0x20, 0x20, 0x20 ; ... .   
  483D  DB 0xBE, 0xBF, 0xC0, 0xC1, 0xC2, 0xC3, 0xC4, 0xC5 ; ........
  4845  DB 0xC6, 0xC7, 0xC8, 0x20, 0x20, 0x20, 0x20, 0x12 ; ...    .
  484D  DB 0x20, 0x20, 0xC9, 0xCA, 0xCB, 0xCC, 0xCD, 0xCE ;   ......
  4855  DB 0xCF, 0xD0, 0xD1, 0xD2, 0xD3, 0xD4, 0x20, 0x20 ; ......  
  485D  DB 0x20, 0x20, 0x12, 0x20, 0xD5, 0xD6, 0xD7, 0xD8 ;   . ....
  4865  DB 0xD9, 0xDA, 0xDB, 0xDC, 0xDD, 0xDE, 0xD9, 0xDF ; ........
  486D  DB 0xE0, 0xD9, 0xD9, 0xE1, 0x20, 0x12, 0xE2, 0xE3 ; .... ...
  4875  DB 0xE4, 0xE5, 0xE5, 0xE5, 0xE5, 0xE5, 0xE5, 0xE5 ; ........
  487D  DB 0xE5, 0xE5, 0xE5, 0xE5, 0xE5, 0xE5, 0xE5, 0xE6 ; ........
  4885  DB 0x12, 0x20, 0x20, 0x20, 0x20, 0x20, 0x20, 0x20 ; .       
  488D  DB 0x20, 0x20, 0x20, 0x20, 0x20, 0x20, 0x20, 0x20 ;         
  4895  DB 0x20, 0x20, 0x20, 0xDD, 0xCB, 0x0C, 0x5E, 0xC4 ;    ...^.
  489D  DB 0x42, 0x49, 0xDD, 0xCB, 0x0C, 0x66, 0xC4, 0x6B ; BI...f.k
  48A5  DB 0x49, 0xDD, 0x4E, 0x0C, 0xCB, 0x41, 0xC4, 0xDE ; I.N..A..
  48AD  DB 0x48, 0xCB, 0x49, 0xC4, 0xF8, 0x48, 0xCB, 0x51 ; H.I..H.Q
  48B5  DB 0xC4, 0x12, 0x49, 0x2A, 0x22, 0xE1, 0xDD, 0xE5 ; ..I*"...
  48BD  DB 0xD1, 0x13, 0x1A, 0xD6, 0x11, 0x77, 0xEB, 0x23 ; .....w.#
  48C5  DB 0x13, 0x01, 0x03, 0x00, 0xED, 0xB0, 0xED, 0x53 ; .......S
  48CD  DB 0x22, 0xE1, 0xC9, 0xDD, 0xE5, 0xE1, 0x36, 0x00 ; ".....6.
  48D5  DB 0x5D, 0x54, 0x01, 0x17, 0x00, 0x13, 0xED, 0xB0 ; ]T......
  48DD  DB 0xC9, 0xDD, 0x66, 0x01, 0xDD, 0x6E, 0x06, 0xDD ; ..f..n..
  48E5  DB 0x5E, 0x08, 0xDD, 0x56, 0x09, 0x19, 0xDD, 0x74 ; ^..V...t
  48ED  DB 0x01, 0xDD, 0x75, 0x06, 0x7C, 0xFE, 0xD0, 0xD8 ; ..u.|...
  48F5  DB 0xC3, 0xD0, 0x48, 0xDD, 0x66, 0x02, 0xDD, 0x6E ; ..H.f..n
  48FD  DB 0x07, 0xDD, 0x5E, 0x0A, 0xDD, 0x56, 0x0B, 0x19 ; ..^..V..
  4905  DB 0xDD, 0x74, 0x02, 0xDD, 0x75, 0x07, 0x7C, 0xFE ; .t..u.|.
  490D  DB 0xD1, 0xD8, 0xC3, 0xD0, 0x48, 0xDD, 0x35, 0x0D ; ....H.5.
  4915  DB 0xC0, 0xDD, 0x7E, 0x0E, 0xDD, 0x77, 0x0D, 0xDD ; ..~..w..
  491D  DB 0x7E, 0x0F, 0x87, 0x5F, 0x16, 0x00, 0xDD, 0x6E ; ~.._...n
  4925  DB 0x11, 0xDD, 0x66, 0x12, 0x19, 0x7E, 0xDD, 0x77 ; ..f..~.w
  492D  DB 0x03, 0x23, 0x7E, 0xDD, 0x77, 0x04, 0xDD, 0x34 ; .#~.w..4
  4935  DB 0x0F, 0xDD, 0x7E, 0x0F, 0xDD, 0xBE, 0x10, 0xD8 ; ..~.....
  493D  DB 0xDD, 0x36, 0x0F, 0x00, 0xC9, 0xDD, 0x46, 0x17 ; .6....F.
  4945  DB 0xDD, 0x7E, 0x13, 0xDD, 0x5E, 0x08, 0xDD, 0x56 ; .~..^..V
  494D  DB 0x09, 0xEB, 0x16, 0x00, 0xDD, 0x5E, 0x15, 0xDD ; .....^..
  4955  DB 0xBE, 0x01, 0x28, 0x0A, 0x38, 0x0B, 0x19, 0xEB ; ..(.8...
  495D  DB 0xDD, 0x73, 0x08, 0xDD, 0x72, 0x09, 0x10, 0xE0 ; .s..r...
  4965  DB 0xC9, 0xB7, 0xED, 0x52, 0x18, 0xF1, 0xDD, 0x46 ; ...R...F
  496D  DB 0x17, 0xDD, 0x7E, 0x14, 0xDD, 0x56, 0x0B, 0xDD ; ..~..V..
  4975  DB 0x5E, 0x0A, 0xEB, 0x16, 0x00, 0xDD, 0x5E, 0x16 ; ^.....^.
  497D  DB 0xDD, 0xBE, 0x02, 0x28, 0x11, 0x38, 0x0A, 0x19 ; ...(.8..
  4985  DB 0xEB, 0xDD, 0x72, 0x0B, 0xDD, 0x73, 0x0A, 0x18 ; ..r..s..
  498D  DB 0x05, 0xB7, 0xED, 0x52, 0x18, 0xF2, 0x10, 0xD9 ; ...R....
  4995  DB 0xC9                                     ; .

; --- L4996 ---
  4996  21 05 E1    LD HL,0xe105
  4999  11 09 38    LD DE,0x3809
  499C  CD B5 49    CALL L49B5
  499F  21 08 E1    LD HL,0xe108
  49A2  11 15 38    LD DE,0x3815
  49A5  18 0E       JR L49B5

; --- L49A7 ---
  49A7  11 B8 38    LD DE,0x38b8
  49AA  21 08 E1    LD HL,0xe108
  49AD  18 06       JR L49B5

; --- L49AF ---
  49AF  21 05 E1    LD HL,0xe105
  49B2  11 18 39    LD DE,0x3918

; --- L49B5 ---
  49B5  CD ED 42    CALL L42ED
  49B8  EB          EX DE,HL
  49B9  CD 53 00    CALL 0x0053   ; BIOS:SETWRT
  49BC  EB          EX DE,HL
  49BD  ED 4B 07 00 LD BC,(0x0007)
  49C1  06 03       LD B,0x03
  49C3  16 00       LD D,0x00

; --- L49C5 ---
  49C5  7E          LD A,(HL)
  49C6  0F          RRCA
  49C7  0F          RRCA
  49C8  0F          RRCA
  49C9  0F          RRCA
  49CA  CD DD 49    CALL L49DD
  49CD  7E          LD A,(HL)
  49CE  CD DD 49    CALL L49DD
  49D1  2B          DEC HL
  49D2  10 F1       DJNZ L49C5
  49D4  E3          EX (SP),HL
  49D5  E3          EX (SP),HL
  49D6  3E 30       LD A,0x30
  49D8  ED 79       OUT (C),A
  49DA  C3 F8 42    JP L42F8

; --- L49DD ---
  49DD  E6 0F       AND 0x0f
  49DF  20 09       JR NZ,L49EA
  49E1  7A          LD A,D
  49E2  A7          AND A
  49E3  20 04       JR NZ,L49E9
  49E5  3E 20       LD A,0x20
  49E7  18 04       JR L49ED

; --- L49E9 ---
  49E9  97          SUB A

; --- L49EA ---
  49EA  C6 30       ADD A,0x30
  49EC  57          LD D,A

; --- L49ED ---
  49ED  ED 79       OUT (C),A
  49EF  C9          RET

; --- L49F0 ---
  49F0  CD AF 49    CALL L49AF
  49F3  11 03 E1    LD DE,0xe103
  49F6  21 06 E1    LD HL,0xe106
  49F9  06 03       LD B,0x03
  49FB  B7          OR A

; --- L49FC ---
  49FC  1A          LD A,(DE)
  49FD  9E          SBC A,(HL)
  49FE  23          INC HL
  49FF  13          INC DE
  4A00  10 FA       DJNZ L49FC
  4A02  D8          RET C
  4A03  21 05 E1    LD HL,0xe105
  4A06  11 B8 38    LD DE,0x38b8
  4A09  3A 14 E1    LD A,(0xe114)
  4A0C  CB 77       BIT 6,A
  4A0E  C0          RET NZ
  4A0F  CB 7F       BIT 7,A
  4A11  C2 B5 49    JP NZ,L49B5
  4A14  CB F7       SET 6,A
  4A16  32 14 E1    LD (0xe114),A
  4A19  3A 02 E1    LD A,(0xe102)
  4A1C  CB 57       BIT 2,A
  4A1E  3E 09       LD A,0x09
  4A20  CC 89 51    CALL Z,L5189
  4A23  C3 B5 49    JP L49B5

; --- L4A26 ---
  4A26  11 03 E1    LD DE,0xe103
  4A29  21 11 E1    LD HL,0xe111
  4A2C  B7          OR A
  4A2D  06 03       LD B,0x03

; --- L4A2F ---
  4A2F  1A          LD A,(DE)
  4A30  9E          SBC A,(HL)
  4A31  23          INC HL
  4A32  13          INC DE
  4A33  10 FA       DJNZ L4A2F
  4A35  D8          RET C
  4A36  21 13 E1    LD HL,0xe113
  4A39  7E          LD A,(HL)
  4A3A  2B          DEC HL
  4A3B  B7          OR A
  4A3C  7E          LD A,(HL)
  4A3D  20 09       JR NZ,L4A48
  4A3F  FE 20       CP 0x20
  4A41  20 05       JR NZ,L4A48
  4A43  36 60       LD (HL),0x60
  4A45  C3 52 4A    JP L4A52

; --- L4A48 ---
  4A48  C6 60       ADD A,0x60
  4A4A  27          DAA
  4A4B  77          LD (HL),A
  4A4C  23          INC HL
  4A4D  7E          LD A,(HL)
  4A4E  CE 00       ADC A,0x00
  4A50  27          DAA
  4A51  77          LD (HL),A

; --- L4A52 ---
  4A52  21 0A E1    LD HL,0xe10a
  4A55  34          INC (HL)
  4A56  20 02       JR NZ,L4A5A
  4A58  35          DEC (HL)
  4A59  C9          RET

; --- L4A5A ---
  4A5A  21 02 E1    LD HL,0xe102
  4A5D  CB 56       BIT 2,(HL)
  4A5F  3E 08       LD A,0x08
  4A61  CC 89 51    CALL Z,L5189
  4A64  CD 4D 4C    CALL L4C4D
  4A67  C3 26 4A    JP L4A26
  4A6A  DB 0xDD, 0x5E, 0x18, 0x16, 0x00, 0x21, 0x29, 0x4B ; .^...!)K
  4A72  DB 0x19, 0x7E                               ; .~

; --- L4A74 ---
  4A74  4F          LD C,A
  4A75  87          ADD A,A
  4A76  81          ADD A,C
  4A77  4F          LD C,A
  4A78  06 00       LD B,0x00
  4A7A  21 EA 4A    LD HL,0x4aea
  4A7D  09          ADD HL,BC
  4A7E  11 03 E1    LD DE,0xe103
  4A81  1A          LD A,(DE)
  4A82  86          ADD A,(HL)
  4A83  27          DAA
  4A84  12          LD (DE),A
  4A85  13          INC DE
  4A86  23          INC HL
  4A87  1A          LD A,(DE)
  4A88  8E          ADC A,(HL)
  4A89  27          DAA
  4A8A  12          LD (DE),A
  4A8B  13          INC DE
  4A8C  23          INC HL
  4A8D  1A          LD A,(DE)
  4A8E  8E          ADC A,(HL)
  4A8F  27          DAA
  4A90  12          LD (DE),A
  4A91  DC 9A 4A    CALL C,L4A9A
  4A94  CD F0 49    CALL L49F0
  4A97  C3 26 4A    JP L4A26

; --- L4A9A ---
  4A9A  21 03 E1    LD HL,0xe103
  4A9D  3E 99       LD A,0x99
  4A9F  77          LD (HL),A
  4AA0  23          INC HL
  4AA1  77          LD (HL),A
  4AA2  23          INC HL
  4AA3  77          LD (HL),A
  4AA4  C9          RET

; --- L4AA5 ---
  4AA5  3A 14 E1    LD A,(0xe114)
  4AA8  CB 77       BIT 6,A
  4AAA  C8          RET Z
  4AAB  11 B8 38    LD DE,0x38b8
  4AAE  CB 57       BIT 2,A
  4AB0  28 08       JR Z,L4ABA
  4AB2  21 05 E1    LD HL,0xe105
  4AB5  CD B5 49    CALL L49B5
  4AB8  18 0F       JR L4AC9

; --- L4ABA ---
  4ABA  CD ED 42    CALL L42ED
  4ABD  EB          EX DE,HL
  4ABE  01 07 00    LD BC,0x0007
  4AC1  3E 20       LD A,0x20
  4AC3  CD 56 00    CALL 0x0056   ; BIOS:FILVRM
  4AC6  CD F8 42    CALL L42F8

; --- L4AC9 ---
  4AC9  21 14 E1    LD HL,0xe114
  4ACC  34          INC (HL)
  4ACD  C9          RET

; --- L4ACE ---
  4ACE  11 03 E1    LD DE,0xe103
  4AD1  21 06 E1    LD HL,0xe106
  4AD4  06 03       LD B,0x03
  4AD6  B7          OR A

; --- L4AD7 ---
  4AD7  1A          LD A,(DE)
  4AD8  9E          SBC A,(HL)
  4AD9  23          INC HL
  4ADA  13          INC DE
  4ADB  10 FA       DJNZ L4AD7
  4ADD  D8          RET C
  4ADE  11 06 E1    LD DE,0xe106
  4AE1  21 03 E1    LD HL,0xe103
  4AE4  01 03 00    LD BC,0x0003
  4AE7  ED B0       LDIR
  4AE9  C9          RET
  4AEA  DB 0x00, 0x00, 0x00, 0x01, 0x00, 0x00, 0x06, 0x00 ; ........
  4AF2  DB 0x00, 0x10, 0x00, 0x00, 0x17, 0x00, 0x00, 0x20 ; ....... 
  4AFA  DB 0x00, 0x00, 0x30, 0x00, 0x00, 0x50, 0x00, 0x00 ; ..0..P..
  4B02  DB 0x80, 0x00, 0x00, 0x00, 0x01, 0x00, 0x00, 0x02 ; ........
  4B0A  DB 0x00, 0x00, 0x04, 0x00, 0x00, 0x08, 0x00, 0x00 ; ........
  4B12  DB 0x10, 0x00, 0x00, 0x15, 0x00, 0x00, 0x20, 0x00 ; ...... .
  4B1A  DB 0x00, 0x30, 0x00, 0x00, 0x40, 0x00, 0x00, 0x50 ; .0..@..P
  4B22  DB 0x00, 0x00, 0x00, 0x01, 0x00, 0x00, 0x20, 0x00 ; ...... .
  4B2A  DB 0x00, 0x00, 0x00, 0x07, 0x07, 0x07, 0x06, 0x06 ; ........
  4B32  DB 0x07, 0x04, 0x04, 0x06, 0x06, 0x06, 0x06, 0x07 ; ........
  4B3A  DB 0x07, 0x08, 0x00, 0x02, 0x01, 0x07, 0x07, 0x07 ; ........
  4B42  DB 0x07, 0x08, 0x08, 0x08, 0x08, 0x06, 0x06, 0x08 ; ........
  4B4A  DB 0x08, 0x08, 0x00, 0x09, 0x02, 0x02, 0x02, 0x00 ; ........
  4B52  DB 0x03, 0x03, 0x03, 0x02, 0x03, 0x06, 0x06, 0x03 ; ........
  4B5A  DB 0x03, 0x03, 0x03, 0x03, 0x03, 0x03, 0x03, 0x02 ; ........
  4B62  DB 0x03, 0x04, 0x02, 0x00, 0x07, 0x0F, 0x0B, 0x09 ; ........
  4B6A  DB 0x0A, 0x0B, 0x03, 0x0B, 0x0A, 0x06, 0x06, 0x00 ; ........
  4B72  DB 0x07, 0x06, 0x05, 0x06, 0x06, 0x07, 0x0A, 0x00 ; ........
  4B7A  DB 0x13, 0x06, 0x00, 0x08, 0x09, 0x09, 0x07, 0x07 ; ........
  4B82  DB 0x08                                     ; .

; --- L4B83 ---
  4B83  F5          PUSH AF
  4B84  CD 53 00    CALL 0x0053   ; BIOS:SETWRT
  4B87  F1          POP AF
  4B88  1E 00       LD E,0x00
  4B8A  C3 A7 4B    JP L4BA7

; --- L4B8D ---
  4B8D  0E FF       LD C,0xff
  4B8F  06 64       LD B,0x64
  4B91  1E 01       LD E,0x01

; --- L4B93 ---
  4B93  90          SUB B
  4B94  0C          INC C
  4B95  30 FC       JR NC,L4B93
  4B97  80          ADD A,B
  4B98  47          LD B,A
  4B99  79          LD A,C
  4B9A  A7          AND A
  4B9B  20 04       JR NZ,L4BA1
  4B9D  3E F0       LD A,0xf0
  4B9F  1E 00       LD E,0x00

; --- L4BA1 ---
  4BA1  C6 30       ADD A,0x30
  4BA3  CD FC 5B    CALL L5BFC
  4BA6  78          LD A,B

; --- L4BA7 ---
  4BA7  0E FF       LD C,0xff
  4BA9  06 0A       LD B,0x0a

; --- L4BAB ---
  4BAB  90          SUB B
  4BAC  0C          INC C
  4BAD  30 FC       JR NC,L4BAB
  4BAF  80          ADD A,B
  4BB0  47          LD B,A
  4BB1  79          LD A,C
  4BB2  A7          AND A
  4BB3  20 06       JR NZ,L4BBB
  4BB5  CB 0B       RRC E
  4BB7  20 02       JR NZ,L4BBB
  4BB9  3E F0       LD A,0xf0

; --- L4BBB ---
  4BBB  C6 30       ADD A,0x30
  4BBD  CD FC 5B    CALL L5BFC
  4BC0  23          INC HL
  4BC1  3E 30       LD A,0x30
  4BC3  80          ADD A,B
  4BC4  C3 FC 5B    JP L5BFC

; --- L4BC7 ---
  4BC7  CD 28 5C    CALL L5C28
  4BCA  01 02 02    LD BC,0x0202
  4BCD  02          LD (BC),A
  4BCE  02          LD (BC),A
  4BCF  02          LD (BC),A
  4BD0  02          LD (BC),A
  4BD1  01 00 C9    LD BC,0xc900

; --- L4BD4 ---
  4BD4  CD ED 42    CALL L42ED
  4BD7  06 0E       LD B,0x0e
  4BD9  21 58 39    LD HL,0x3958
  4BDC  11 20 00    LD DE,0x0020

; --- L4BDF ---
  4BDF  CD 28 5C    CALL L5C28
  4BE2  03          INC BC
  4BE3  20 20       JR NZ,L4C05
  4BE5  20 20       JR NZ,L4C07
  4BE7  20 20       JR NZ,L4C09
  4BE9  03          INC BC
  4BEA  00          NOP
  4BEB  19          ADD HL,DE
  4BEC  05          DEC B
  4BED  20 F0       JR NZ,L4BDF
  4BEF  21 F9 38    LD HL,0x38f9
  4BF2  CD 28 5C    CALL L5C28
  4BF5  53          LD D,E
  4BF6  43          LD B,E
  4BF7  4F          LD C,A
  4BF8  52          LD D,D
  4BF9  45          LD B,L
  4BFA  00          NOP
  4BFB  21 99 38    LD HL,0x3899
  4BFE  CD 28 5C    CALL L5C28
  4C01  54          LD D,H
  4C02  4F          LD C,A
  4C03  50          LD D,B
  4C04  00          NOP

; --- L4C05 ---
  4C05  21 99 39    LD HL,0x3999
  4C08  CD 28 5C    CALL L5C28
  4C0B  4C          LD C,H
  4C0C  45          LD B,L
  4C0D  56          LD D,(HL)
  4C0E  45          LD B,L
  4C0F  4C          LD C,H
  4C10  00          NOP
  4C11  21 59 39    LD HL,0x3959
  4C14  CD 28 5C    CALL L5C28
  4C17  5A          LD E,D
  4C18  41          LD B,C
  4C19  4E          LD C,(HL)
  4C1A  41          LD B,C
  4C1B  43          LD B,E
  4C1C  00          NOP
  4C1D  21 F9 39    LD HL,0x39f9
  4C20  CD 28 5C    CALL L5C28
  4C23  52          LD D,D
  4C24  4F          LD C,A
  4C25  55          LD D,L
  4C26  4E          LD C,(HL)
  4C27  44          LD B,H
  4C28  00          NOP
  4C29  21 18 38    LD HL,0x3818
  4C2C  CD C7 4B    CALL L4BC7
  4C2F  21 78 38    LD HL,0x3878
  4C32  CD C7 4B    CALL L4BC7
  4C35  21 D8 38    LD HL,0x38d8
  4C38  CD C7 4B    CALL L4BC7
  4C3B  21 38 39    LD HL,0x3938
  4C3E  CD C7 4B    CALL L4BC7
  4C41  21 F8 3A    LD HL,0x3af8
  4C44  CD C7 4B    CALL L4BC7
  4C47  CD A7 49    CALL L49A7
  4C4A  CD AF 49    CALL L49AF

; --- L4C4D ---
  4C4D  CD 68 4C    CALL L4C68
  4C50  3A 0B E1    LD A,(0xe10b)
  4C53  21 BB 39    LD HL,0x39bb
  4C56  CD 83 4B    CALL L4B83
  4C59  21 7A 39    LD HL,0x397a
  4C5C  CD 53 00    CALL 0x0053   ; BIOS:SETWRT
  4C5F  3A 0A E1    LD A,(0xe10a)
  4C62  B7          OR A
  4C63  C8          RET Z
  4C64  3D          DEC A
  4C65  C3 8D 4B    JP L4B8D

; --- L4C68 ---
  4C68  CD ED 42    CALL L42ED
  4C6B  3A 01 E7    LD A,(0xe701)
  4C6E  21 1B 3A    LD HL,0x3a1b
  4C71  C3 83 4B    JP L4B83

; --- L4C74 ---
  4C74  F5          PUSH AF
  4C75  0F          RRCA
  4C76  0F          RRCA
  4C77  0F          RRCA
  4C78  0F          RRCA
  4C79  CD 7D 4C    CALL L4C7D
  4C7C  F1          POP AF

; --- L4C7D ---
  4C7D  E6 0F       AND 0x0f
  4C7F  C6 30       ADD A,0x30
  4C81  FE 3A       CP 0x3a
  4C83  DA FC 5B    JP C,L5BFC
  4C86  C6 07       ADD A,0x07
  4C88  C3 FC 5B    JP L5BFC
  4C8B  DB 0xCD, 0x91, 0x4C, 0xC3, 0xF7, 0x4C, 0x3A, 0x01 ; ..L..L:.
  4C93  DB 0xE3, 0x32, 0x29, 0xE1, 0x3A, 0x02, 0xE3, 0x32 ; .2).:..2
  4C9B  DB 0x2A, 0xE1, 0xFD, 0x21, 0x28, 0xE1, 0xFD, 0x36 ; *..!(..6
  4CA3  DB 0x00, 0x00, 0x3A, 0x29, 0xE1, 0xDD, 0x96, 0x01 ; ..:)....
  4CAB  DB 0xD2, 0xB4, 0x4C, 0xED, 0x44, 0xFD, 0xCB, 0x00 ; ..L.D...
  4CB3  DB 0xD6, 0xC2, 0xB8, 0x4C, 0x3C, 0x4F, 0x3A, 0x2A ; ...L<O:*
  4CBB  DB 0xE1, 0xDD, 0x96, 0x02, 0xD2, 0xC8, 0x4C, 0xED ; ......L.
  4CC3  DB 0x44, 0xFD, 0xCB, 0x00, 0xDE, 0xC2, 0xCC, 0x4C ; D......L
  4CCB  DB 0x3C, 0xB9, 0xDA, 0xD7, 0x4C, 0x47, 0x79, 0x48 ; <...LGyH
  4CD3  DB 0xFD, 0xCB, 0x00, 0xE6, 0x67, 0x2E, 0x00, 0x59 ; ....g..Y
  4CDB  DB 0xCD, 0x29, 0x43, 0x7D, 0x21, 0x42, 0x4D, 0x06 ; .)C}!BM.
  4CE3  DB 0x03, 0xBE, 0x38, 0x03, 0x23, 0x10, 0xFA, 0x78 ; ..8.#..x
  4CEB  DB 0xFD, 0xB6, 0x00, 0x5F, 0x16, 0x00, 0x21, 0x45 ; ..._..!E
  4CF3  DB 0x4D, 0x19, 0x5E, 0xC9, 0x7B, 0x87, 0x87, 0x5F ; M.^.{.._
  4CFB  DB 0x16, 0x00, 0x21, 0x65, 0x4D, 0x19, 0x5E, 0x23 ; ..!eM.^#
  4D03  DB 0x56, 0x23, 0x4E, 0x23, 0x46, 0x69, 0x60, 0xDD ; V#N#Fi`.
  4D0B  DB 0x7E, 0x17, 0xCB, 0x77, 0x28, 0x08, 0x29, 0x09 ; ~..w(.).
  4D13  DB 0xEB, 0x4D, 0x44, 0x29, 0x09, 0xEB, 0xCB, 0x7F ; .MD)....
  4D1B  DB 0x28, 0x06, 0x29, 0x29, 0xEB, 0x29, 0x29, 0xEB ; (.)).)).
  4D23  DB 0xE6, 0x3F, 0x47, 0xE5, 0x21, 0x00, 0x00, 0x19 ; .?G.!...
  4D2B  DB 0x10, 0xFD, 0xDD, 0x75, 0x08, 0xDD, 0x74, 0x09 ; ...u..t.
  4D33  DB 0xD1, 0x21, 0x00, 0x00, 0x47, 0x19, 0x10, 0xFD ; .!..G...
  4D3B  DB 0xDD, 0x75, 0x0A, 0xDD, 0x74, 0x0B, 0xC9, 0x32 ; .u..t..2
  4D43  DB 0x6A, 0xAB, 0x02, 0x03, 0x03, 0x04, 0x0E, 0x0D ; j.......
  4D4B  DB 0x0D, 0x0C, 0x06, 0x05, 0x05, 0x04, 0x0A, 0x0B ; ........
  4D53  DB 0x0B, 0x0C, 0x02, 0x01, 0x01, 0x00, 0x0E, 0x0F ; ........
  4D5B  DB 0x0F, 0x00, 0x06, 0x07, 0x07, 0x08, 0x0A, 0x09 ; ........
  4D63  DB 0x09, 0x08, 0x00, 0x00, 0x80, 0x00, 0x30, 0x00 ; ......0.
  4D6B  DB 0x76, 0x00, 0x5A, 0x00, 0x5A, 0x00, 0x76, 0x00 ; v.Z.Z.v.
  4D73  DB 0x30, 0x00, 0x80, 0x00, 0x00, 0x00, 0x76, 0x00 ; 0.....v.
  4D7B  DB 0xD0, 0xFF, 0x5A, 0x00, 0xA6, 0xFF, 0x30, 0x00 ; ..Z...0.
  4D83  DB 0x8A, 0xFF, 0x00, 0x00, 0x80, 0xFF, 0xD0, 0xFF ; ........
  4D8B  DB 0x8A, 0xFF, 0xA6, 0xFF, 0xA6, 0xFF, 0x8A, 0xFF ; ........
  4D93  DB 0xD0, 0xFF, 0x80, 0xFF, 0x00, 0x00, 0x8A, 0xFF ; ........
  4D9B  DB 0x30, 0x00, 0xA6, 0xFF, 0x5A, 0x00, 0xD0, 0xFF ; 0...Z...
  4DA3  DB 0x76, 0x00                               ; v.

; --- L4DA5 ---
  4DA5  3E 07       LD A,0x07
  4DA7  21 18 E1    LD HL,0xe118
  4DAA  CD 41 01    CALL 0x0141   ; BIOS:SNSMAT
  4DAD  CB 67       BIT 4,A
  4DAF  28 03       JR Z,L4DB4
  4DB1  CB BE       RES 7,(HL)
  4DB3  C9          RET

; --- L4DB4 ---
  4DB4  CB 7E       BIT 7,(HL)
  4DB6  C0          RET NZ
  4DB7  CB 77       BIT 6,A
  4DB9  08          EX AF,AF'
  4DBA  AF          XOR A
  4DBB  77          LD (HL),A
  4DBC  08          EX AF,AF'
  4DBD  28 78       JR Z,L4E37
  4DBF  CD 08 52    CALL L5208
  4DC2  CD ED 42    CALL L42ED
  4DC5  21 6A 39    LD HL,0x396a
  4DC8  11 19 E1    LD DE,0xe119
  4DCB  01 05 00    LD BC,0x0005
  4DCE  CD 59 00    CALL 0x0059   ; BIOS:LDIRMV

; --- L4DD1 ---
  4DD1  3A 18 E1    LD A,(0xe118)
  4DD4  47          LD B,A
  4DD5  E6 0F       AND 0x0f
  4DD7  20 1E       JR NZ,L4DF7
  4DD9  CB 60       BIT 4,B
  4DDB  20 0E       JR NZ,L4DEB
  4DDD  11 6A 39    LD DE,0x396a
  4DE0  21 40 4E    LD HL,0x4e40
  4DE3  01 05 00    LD BC,0x0005
  4DE6  CD 5C 00    CALL 0x005C   ; BIOS:LDIRVM
  4DE9  18 0C       JR L4DF7

; --- L4DEB ---
  4DEB  11 6A 39    LD DE,0x396a
  4DEE  21 19 E1    LD HL,0xe119
  4DF1  01 05 00    LD BC,0x0005
  4DF4  CD 5C 00    CALL 0x005C   ; BIOS:LDIRVM

; --- L4DF7 ---
  4DF7  CD 0B 4E    CALL L4E0B
  4DFA  30 D5       JR NC,L4DD1
  4DFC  11 6A 39    LD DE,0x396a
  4DFF  21 19 E1    LD HL,0xe119
  4E02  01 05 00    LD BC,0x0005
  4E05  CD 5C 00    CALL 0x005C   ; BIOS:LDIRVM
  4E08  C3 F8 42    JP L42F8

; --- L4E0B ---
  4E0B  21 18 E1    LD HL,0xe118
  4E0E  7E          LD A,(HL)
  4E0F  47          LD B,A
  4E10  3C          INC A
  4E11  E6 1F       AND 0x1f
  4E13  4F          LD C,A
  4E14  78          LD A,B
  4E15  E6 80       AND 0x80
  4E17  B1          OR C
  4E18  77          LD (HL),A
  4E19  3E 07       LD A,0x07
  4E1B  CD 41 01    CALL 0x0141   ; BIOS:SNSMAT
  4E1E  CB 67       BIT 4,A
  4E20  08          EX AF,AF'
  4E21  CB 7E       BIT 7,(HL)
  4E23  28 08       JR Z,L4E2D
  4E25  08          EX AF,AF'
  4E26  20 0A       JR NZ,L4E32
  4E28  CD 0E 52    CALL L520E
  4E2B  37          SCF
  4E2C  C9          RET

; --- L4E2D ---
  4E2D  08          EX AF,AF'
  4E2E  28 02       JR Z,L4E32
  4E30  CB FE       SET 7,(HL)

; --- L4E32 ---
  4E32  CD 06 43    CALL L4306
  4E35  B7          OR A
  4E36  C9          RET

; --- L4E37 ---
  4E37  CD 08 52    CALL L5208

; --- L4E3A ---
  4E3A  CD 0B 4E    CALL L4E0B
  4E3D  30 FB       JR NC,L4E3A
  4E3F  C9          RET
  4E40  DB 0x50, 0x41, 0x55, 0x53, 0x45             ; PAUSE

; --- L4E45 ---
  4E45  1E 01       LD E,0x01
  4E47  CD 50 4E    CALL L4E50
  4E4A  21 00 80    LD HL,0x8000
  4E4D  C3 24 00    JP 0x0024   ; BIOS:ENASLT

; --- L4E50 ---
  4E50  1C          INC E
  4E51  D5          PUSH DE
  4E52  CD 38 01    CALL 0x0138   ; BIOS:RSLREG
  4E55  D1          POP DE
  4E56  07          RLCA
  4E57  07          RLCA
  4E58  43          LD B,E

; --- L4E59 ---
  4E59  0F          RRCA
  4E5A  0F          RRCA
  4E5B  10 FC       DJNZ L4E59
  4E5D  E6 03       AND 0x03
  4E5F  4F          LD C,A
  4E60  06 00       LD B,0x00
  4E62  21 C1 FC    LD HL,0xfcc1
  4E65  09          ADD HL,BC
  4E66  B6          OR (HL)
  4E67  F0          RET P
  4E68  4F          LD C,A
  4E69  23          INC HL
  4E6A  23          INC HL
  4E6B  23          INC HL
  4E6C  23          INC HL
  4E6D  7E          LD A,(HL)
  4E6E  07          RLCA
  4E6F  07          RLCA

; --- L4E70 ---
  4E70  1D          DEC E
  4E71  28 04       JR Z,L4E77
  4E73  0F          RRCA
  4E74  0F          RRCA
  4E75  18 F9       JR L4E70

; --- L4E77 ---
  4E77  E6 0C       AND 0x0c
  4E79  B1          OR C
  4E7A  C9          RET
  4E7B  DB 0x21, 0x00, 0xE2, 0xCB, 0x46, 0xCB, 0x86, 0xC2 ; !...F...
  4E83  DB 0x82, 0x51, 0xCB, 0x4E, 0xC0, 0x3E, 0xB8, 0x32 ; .Q.N.>.2
  4E8B  DB 0x08, 0xE2, 0x97, 0x32, 0x09, 0xE2, 0x32, 0x0A ; ...2..2.
  4E93  DB 0xE2, 0x32, 0x0B, 0xE2, 0xDD, 0x21, 0x0C, 0xE2 ; .2...!..
  4E9B  DB 0x06, 0x05, 0xDD, 0x7E, 0x00, 0x57, 0xDD, 0x5E ; ...~.W.^
  4EA3  DB 0x08, 0xA7, 0xCA, 0xF1, 0x4E, 0xD9, 0xDD, 0x35 ; ....N..5
  4EAB  DB 0x0C, 0x20, 0x12, 0xDD, 0x7E, 0x04, 0xDD, 0x77 ; . ..~..w
  4EB3  DB 0x0C, 0xDD, 0x34, 0x09, 0xDD, 0x7E, 0x09, 0xDD ; ..4..~..
  4EBB  DB 0xBE, 0x0A, 0xCC, 0x4A, 0x4F, 0xCD, 0x99, 0x50 ; ...JO..P
  4EC3  DB 0xD9, 0xCB, 0x7B, 0xD9, 0xC4, 0x0D, 0x4F, 0xCD ; ..{...O.
  4ECB  DB 0xD2, 0x50, 0xD9, 0xCB, 0x6B, 0xCA, 0xF1, 0x4E ; .P..k..N
  4ED3  DB 0xDD, 0x7E, 0x14, 0xDD, 0x86, 0x15, 0xDD, 0x77 ; .~.....w
  4EDB  DB 0x15, 0x30, 0x13, 0xDD, 0x7E, 0x01, 0xDD, 0xBE ; .0..~...
  4EE3  DB 0x16, 0xC2, 0xEC, 0x4E, 0xCB, 0xCB, 0xC3, 0xF1 ; ...N....
  4EEB  DB 0x4E, 0xCB, 0x8B, 0xDD, 0x35, 0x01, 0xDD, 0x73 ; N...5..s
  4EF3  DB 0x08, 0x11, 0x1B, 0x00, 0xDD, 0x19, 0x05, 0xC2 ; ........
  4EFB  DB 0x9D, 0x4E, 0x21, 0x01, 0xE2, 0x97, 0x5E, 0xCD ; .N!...^.
  4F03  DB 0x93, 0x00, 0x23, 0x3C, 0xFE, 0x0B, 0xC2, 0x01 ; ..#<....
  4F0B  DB 0x4F, 0xC9, 0xDD, 0x7E, 0x10, 0xDD, 0x86, 0x11 ; O..~....
  4F13  DB 0xDD, 0x77, 0x11, 0xD0, 0xDD, 0x7E, 0x17, 0xA7 ; .w...~..
  4F1B  DB 0xC8, 0xDD, 0x4E, 0x12, 0xDD, 0x46, 0x13, 0x60 ; ..N..F.`
  4F23  DB 0x69, 0xCB, 0x38, 0xCB, 0x19, 0x3D, 0xC2, 0x24 ; i.8..=.$
  4F2B  DB 0x4F, 0xD9, 0xCB, 0x73, 0xD9, 0x20, 0x09, 0x09 ; O..s. ..
  4F33  DB 0x7C, 0xFE, 0x10, 0x38, 0x0B, 0xC3, 0x40, 0x4F ; |..8..@O
  4F3B  DB 0xA7, 0xED, 0x42, 0x30, 0x03, 0x21, 0x00, 0x00 ; ..B0.!..
  4F43  DB 0xDD, 0x75, 0x12, 0xDD, 0x74, 0x13, 0xC9, 0xDD ; .u..t...
  4F4B  DB 0x5E, 0x06, 0xDD, 0x56, 0x07, 0x1B, 0x13, 0x1A ; ^..V....
  4F53  DB 0xCB, 0x7F, 0xCA, 0x30, 0x50, 0xFE, 0xDF, 0xD2 ; ...0P...
  4F5B  DB 0x1F, 0x50, 0x13, 0xCB, 0xBF, 0x21, 0x51, 0x4F ; .P...!QO
  4F63  DB 0xE5, 0x01, 0x6C, 0x4F, 0xCD, 0xE6, 0x51, 0x1A ; ..lO..Q.
  4F6B  DB 0xE9, 0x86, 0x4F, 0x8D, 0x4F, 0x95, 0x4F, 0xF3 ; ..O.O.O.
  4F73  DB 0x4F, 0x9E, 0x4F, 0xA2, 0x4F, 0xB6, 0x4F, 0x89 ; O.O.O.O.
  4F7B  DB 0x51, 0xAD, 0x4F, 0xB2, 0x4F, 0xCE, 0x4F, 0xE2 ; Q.O.O.O.
  4F83  DB 0x4F, 0xFC, 0x4F, 0x6F, 0x13, 0x1A, 0x67, 0xEB ; O.Oo..g.
  4F8B  DB 0x1B, 0xC9, 0x1A, 0xDD, 0x35, 0x0F, 0x20, 0xF3 ; ....5. .
  4F93  DB 0x13, 0xC9, 0xDD, 0x36, 0x00, 0x00, 0xE1, 0xE1 ; ...6....
  4F9B  DB 0xC3, 0xCD, 0x4E, 0xDD, 0x77, 0x02, 0xC9, 0xA7 ; ..N.w...
  4FA3  DB 0xCA, 0xA9, 0x4F, 0xDD, 0x86, 0x03, 0xDD, 0x77 ; ..O....w
  4FAB  DB 0x03, 0xC9, 0x1A, 0xDD, 0x77, 0x0F, 0xC9, 0xDD ; ....w...
  4FB3  DB 0x77, 0x19, 0xC9, 0xDD, 0x46, 0x01, 0xCB, 0x7F ; w...F...
  4FBB  DB 0x28, 0x06, 0x80, 0x38, 0x0A, 0x97, 0x18, 0x07 ; (..8....
  4FC3  DB 0x80, 0xFE, 0x10, 0x38, 0x02, 0x3E, 0x0F, 0xDD ; ...8.>..
  4FCB  DB 0x77, 0x01, 0xC9, 0x1A, 0x4F, 0x13, 0x1A, 0x47 ; w...O..G
  4FD3  DB 0xDD, 0x6E, 0x0F, 0x2D, 0x26, 0x00, 0x09, 0x7E ; .n.-&..~
  4FDB  DB 0xDD, 0x86, 0x03, 0xDD, 0x77, 0x03, 0xC9, 0xDD ; ....w...
  4FE3  DB 0x77, 0x16, 0x13, 0x1A, 0xDD, 0x77, 0x14, 0xDD ; w....w..
  4FEB  DB 0x36, 0x15, 0x00, 0xDD, 0xCB, 0x08, 0xEE, 0xC9 ; 6.......
  4FF3  DB 0xDD, 0xCB, 0x08, 0x4E, 0xCA, 0x86, 0x4F, 0x13 ; ...N..O.
  4FFB  DB 0xC9, 0x47, 0x13, 0x1A, 0xDD, 0x77, 0x10, 0x78 ; .G...w.x
  5003  DB 0xDD, 0x46, 0x08, 0xCB, 0xB0, 0xCB, 0x7F, 0x28 ; .F.....(
  500B  DB 0x02, 0xCB, 0xF0, 0xCB, 0xF8, 0xE6, 0x7F, 0x28 ; .......(
  5013  DB 0x05, 0xDD, 0x77, 0x17, 0x18, 0x02, 0xCB, 0xB8 ; ..w.....
  501B  DB 0xDD, 0x70, 0x08, 0xC9, 0xF5, 0xDD, 0x7E, 0x0B ; .p....~.
  5023  DB 0xCD, 0x87, 0x50, 0xDD, 0x70, 0x13, 0xDD, 0x71 ; ..P.p..q
  502B  DB 0x12, 0xF1, 0xC3, 0x48, 0x50, 0xDD, 0x77, 0x0B ; ...HP.w.
  5033  DB 0xCD, 0x86, 0x50, 0xDD, 0x70, 0x13, 0xDD, 0x71 ; ..P.p..q
  503B  DB 0x12, 0x1A, 0xFE, 0xDF, 0xD2, 0x48, 0x50, 0xDD ; .....HP.
  5043  DB 0x7E, 0x0D, 0xC3, 0x59, 0x50, 0xD6, 0xDF, 0x20 ; ~..YP.. 
  504B  DB 0x05, 0x13, 0x1A, 0xC3, 0x58, 0x50, 0x3D, 0x01 ; ....XP=.
  5053  DB 0x6C, 0x52, 0xCD, 0xE7, 0x51, 0x13, 0xDD, 0x72 ; lR..Q..r
  505B  DB 0x07, 0xDD, 0x73, 0x06, 0xDD, 0x77, 0x0A, 0x57 ; ..s..w.W
  5063  DB 0xDD, 0x77, 0x0D, 0xDD, 0x7E, 0x04, 0xDD, 0x77 ; .w..~..w
  506B  DB 0x0C, 0x97, 0xDD, 0x77, 0x09, 0xDD, 0x77, 0x1A ; ...w..w.
  5073  DB 0xDD, 0xCB, 0x08, 0x7E, 0x28, 0x04, 0xDD, 0x36 ; ...~(..6
  507B  DB 0x11, 0x80, 0xD9, 0xDD, 0x56, 0x00, 0xDD, 0x5E ; ....V..^
  5083  DB 0x08, 0xD9, 0xC9, 0x13, 0xA7, 0x01, 0x00, 0x00 ; ........
  508B  DB 0xC8, 0xDD, 0x86, 0x03, 0x3D, 0x01, 0x00, 0xF2 ; ....=...
  5093  DB 0xCD, 0xE6, 0x51, 0x4D, 0x44, 0xC9, 0xDD, 0x7E ; ..QMD..~
  509B  DB 0x02, 0x87, 0xCA, 0xCC, 0x50, 0x21, 0x7D, 0x52 ; ....P!}R
  50A3  DB 0x4F, 0x06, 0x00, 0x09, 0x4E, 0x23, 0x46, 0xDD ; O...N#F.
  50AB  DB 0x6E, 0x1A, 0xDD, 0x34, 0x1A, 0x26, 0x00, 0x09 ; n..4.&..
  50B3  DB 0x7E, 0xCB, 0x7F, 0x28, 0x05, 0x2B, 0xDD, 0x35 ; ~..(.+.5
  50BB  DB 0x1A, 0x7E, 0x2F, 0xC6, 0x10, 0x47, 0xDD, 0x7E ; .~/..G.~
  50C3  DB 0x01, 0x90, 0x30, 0x01, 0x97, 0xDD, 0x77, 0x0E ; ..0...w.
  50CB  DB 0xC9, 0xDD, 0x7E, 0x01, 0xC3, 0xC8, 0x50, 0xDD ; ..~...P.
  50D3  DB 0x7E, 0x00, 0x47, 0xCB, 0x68, 0xCA, 0xEA, 0x50 ; ~.G.h..P
  50DB  DB 0x3E, 0xB8, 0x32, 0x08, 0xE2, 0x97, 0x32, 0x09 ; >.2...2.
  50E3  DB 0xE2, 0x32, 0x0A, 0xE2, 0x32, 0x0B, 0xE2, 0xDD ; .2..2...
  50EB  DB 0x5E, 0x12, 0xDD, 0x56, 0x13, 0x7B, 0xB2, 0x20 ; ^..V.{. 
  50F3  DB 0x03, 0xDD, 0x77, 0x0E, 0xCB, 0x40, 0x20, 0x03 ; ..w..@ .
  50FB  DB 0x11, 0x00, 0x00, 0xDD, 0x7E, 0x05, 0x4F, 0xCB ; ....~.O.
  5103  DB 0x48, 0x06, 0x00, 0x20, 0x0E, 0x21, 0x3C, 0x51 ; H.. .!<Q
  510B  DB 0x09, 0x3A, 0x08, 0xE2, 0xB6, 0x32, 0x08, 0xE2 ; .:...2..
  5113  DB 0xC3, 0x27, 0x51, 0xDD, 0x7E, 0x19, 0x32, 0x07 ; .'Q.~.2.
  511B  DB 0xE2, 0x21, 0x39, 0x51, 0x09, 0x3A, 0x08, 0xE2 ; .!9Q.:..
  5123  DB 0xA6, 0x32, 0x08, 0xE2, 0x21, 0x09, 0xE2, 0x09 ; .2..!...
  512B  DB 0xDD, 0x7E, 0x0E, 0x77, 0xCB, 0x21, 0x21, 0x01 ; .~.w.!!.
  5133  DB 0xE2, 0x09, 0x73, 0x23, 0x72, 0xC9, 0xF7, 0xEF ; ..s#r...
  513B  DB 0xDF, 0x08, 0x10, 0x20                   ; ... 

; --- L513F ---
  513F  11 00 F2    LD DE,0xf200
  5142  06 00       LD B,0x00

; --- L5144 ---
  5144  C5          PUSH BC
  5145  D5          PUSH DE
  5146  78          LD A,B
  5147  01 F0 51    LD BC,0x51f0
  514A  CD E6 51    CALL L51E6
  514D  EB          EX DE,HL
  514E  3E 0A       LD A,0x0a

; --- L5150 ---
  5150  73          LD (HL),E
  5151  23          INC HL
  5152  72          LD (HL),D
  5153  01 17 00    LD BC,0x0017
  5156  09          ADD HL,BC
  5157  CB 3A       SRL D
  5159  CB 1B       RR E
  515B  3D          DEC A
  515C  20 F2       JR NZ,L5150
  515E  D1          POP DE
  515F  C1          POP BC
  5160  13          INC DE
  5161  13          INC DE
  5162  04          INC B
  5163  78          LD A,B
  5164  FE 0C       CP 0x0c
  5166  20 DC       JR NZ,L5144
  5168  97          SUB A
  5169  32 00 E2    LD (0xe200),A

; --- L516C ---
  516C  DD E5       PUSH IX
  516E  DD 21 0C E2 LD IX,0xe20c
  5172  11 1B 00    LD DE,0x001b
  5175  06 05       LD B,0x05
  5177  97          SUB A

; --- L5178 ---
  5178  DD 77 00    LD (IX+0),A
  517B  DD 19       ADD IX,DE
  517D  05          DEC B
  517E  20 F8       JR NZ,L5178
  5180  DD E1       POP IX
  5182  3E 07       LD A,0x07
  5184  1E BF       LD E,0xbf
  5186  C3 93 00    JP 0x0093   ; BIOS:WRTPSG

; --- L5189 ---
  5189  C5          PUSH BC
  518A  E5          PUSH HL
  518B  D5          PUSH DE
  518C  DD E5       PUSH IX
  518E  F3          DI
  518F  CD 99 51    CALL L5199
  5192  FB          EI
  5193  DD E1       POP IX
  5195  D1          POP DE
  5196  E1          POP HL
  5197  C1          POP BC
  5198  C9          RET

; --- L5199 ---
  5199  57          LD D,A
  519A  01 34 52    LD BC,0x5234
  519D  CD E6 51    CALL L51E6
  51A0  4A          LD C,D
  51A1  46          LD B,(HL)
  51A2  23          INC HL

; --- L51A3 ---
  51A3  7E          LD A,(HL)
  51A4  23          INC HL
  51A5  E5          PUSH HL
  51A6  57          LD D,A
  51A7  87          ADD A,A
  51A8  82          ADD A,D
  51A9  87          ADD A,A
  51AA  87          ADD A,A
  51AB  82          ADD A,D
  51AC  87          ADD A,A
  51AD  82          ADD A,D
  51AE  5F          LD E,A
  51AF  16 00       LD D,0x00
  51B1  21 0C E2    LD HL,0xe20c
  51B4  19          ADD HL,DE
  51B5  E5          PUSH HL
  51B6  DD E1       POP IX
  51B8  EB          EX DE,HL
  51B9  E1          POP HL
  51BA  7E          LD A,(HL)
  51BB  A7          AND A
  51BC  28 22       JR Z,L51E0
  51BE  1A          LD A,(DE)
  51BF  CB 77       BIT 6,A
  51C1  C0          RET NZ
  51C2  DD 71 18    LD (IX+24),C
  51C5  78          LD A,B
  51C6  01 08 00    LD BC,0x0008
  51C9  ED B0       LDIR
  51CB  47          LD B,A
  51CC  97          SUB A
  51CD  DD 77 08    LD (IX+8),A
  51D0  DD 77 09    LD (IX+9),A
  51D3  DD 77 19    LD (IX+25),A
  51D6  3C          INC A
  51D7  DD 77 0C    LD (IX+12),A
  51DA  DD 77 0A    LD (IX+10),A
  51DD  C3 E2 51    JP L51E2

; --- L51E0 ---
  51E0  12          LD (DE),A
  51E1  23          INC HL

; --- L51E2 ---
  51E2  05          DEC B
  51E3  20 BE       JR NZ,L51A3
  51E5  C9          RET

; --- L51E6 ---
  51E6  87          ADD A,A
  51E7  26 00       LD H,0x00
  51E9  6F          LD L,A
  51EA  09          ADD HL,BC
  51EB  7E          LD A,(HL)
  51EC  23          INC HL
  51ED  66          LD H,(HL)
  51EE  6F          LD L,A
  51EF  C9          RET
  51F0  DB 0xFC, 0x0F, 0x1C, 0x0F, 0x40, 0x0E, 0x74, 0x0D ; ....@.t.
  51F8  DB 0xB4, 0x0C, 0xFC, 0x0B, 0x50, 0x0B, 0xAC, 0x0A ; ....P...
  5200  DB 0x14, 0x0A, 0x84, 0x09, 0xFC, 0x08, 0x78, 0x08 ; ......x.

; --- L5208 ---
  5208  3E 03       LD A,0x03

; --- L520A ---
  520A  32 00 E2    LD (0xe200),A
  520D  C9          RET

; --- L520E ---
  520E  97          SUB A
  520F  18 F9       JR L520A

; --- L5211 ---
  5211  F3          DI
  5212  DD E5       PUSH IX
  5214  DD 21 0C E2 LD IX,0xe20c
  5218  11 1B 00    LD DE,0x001b
  521B  06 03       LD B,0x03

; --- L521D ---
  521D  DD CB 08 EE SET 5,(IX+8)
  5221  DD 36 16 08 LD (IX+22),0x08
  5225  DD 36 14 10 LD (IX+20),0x10
  5229  DD 36 15 00 LD (IX+21),0x00
  522D  DD 19       ADD IX,DE
  522F  05          DEC B
  5230  20 EB       JR NZ,L521D
  5232  DD E1       POP IX
  5234  FB          EI
  5235  C9          RET
  5236  DB 0xE2, 0x52, 0xD1, 0x53, 0x3C, 0x54, 0x1C, 0x55 ; .R.S<T.U
  523E  DB 0x99, 0x55, 0xE6, 0x55, 0xFE, 0x55, 0x60, 0x56 ; .U.U.U`V
  5246  DB 0x8B, 0x56, 0xBE, 0x56, 0x99, 0x57, 0xCF, 0x57 ; .V.V.W.W
  524E  DB 0x07, 0x58, 0x17, 0x58, 0x29, 0x58, 0x44, 0x58 ; .X.X)XDX
  5256  DB 0x59, 0x58, 0x69, 0x58, 0x88, 0x58, 0x9F, 0x58 ; YXiX.X.X
  525E  DB 0xAC, 0x58, 0xC0, 0x58, 0xD2, 0x58, 0xEA, 0x58 ; .X.X.X.X
  5266  DB 0xFA, 0x58, 0x7E, 0x59, 0xD7, 0x59, 0x01, 0x02 ; .X~Y.Y..
  526E  DB 0x03, 0x04, 0x06, 0x08, 0x0C, 0x10, 0x18, 0x20 ; ....... 
  5276  DB 0x30, 0x40, 0x60, 0x80, 0xC0, 0x00, 0x12, 0x1C ; 0@`.....
  527E  DB 0x24, 0x8D, 0x52, 0x95, 0x52, 0x9D, 0x52, 0xA5 ; $.R.R.R.
  5286  DB 0x52, 0xB2, 0x52, 0xCC, 0x52, 0xD8, 0x52, 0x0F ; R.R.R.R.
  528E  DB 0x0E, 0x0D, 0x0C, 0x0B, 0x0A, 0x09, 0x80, 0x0F ; ........
  5296  DB 0x0D, 0x0A, 0x07, 0x04, 0x02, 0x00, 0x80, 0x0D ; ........
  529E  DB 0x0E, 0x0F, 0x0E, 0x0C, 0x0A, 0x08, 0x80, 0x0F ; ........
  52A6  DB 0x0F, 0x0F, 0x0F, 0x0F, 0x0F, 0x0F, 0x0E, 0x0C ; ........
  52AE  DB 0x0A, 0x08, 0x00, 0x80, 0x07, 0x09, 0x0C, 0x0F ; ........
  52B6  DB 0x0F, 0x0F, 0x0F, 0x0F, 0x0E, 0x0E, 0x0E, 0x0E ; ........
  52BE  DB 0x0D, 0x0D, 0x0D, 0x0D, 0x0C, 0x0C, 0x0C, 0x0B ; ........
  52C6  DB 0x0B, 0x0B, 0x0A, 0x0A, 0x09, 0x80, 0x08, 0x0D ; ........
  52CE  DB 0x0F, 0x0F, 0x0F, 0x0F, 0x0F, 0x0F, 0x0F, 0x0F ; ........
  52D6  DB 0x0E, 0x80, 0x0D, 0x0F, 0x0F, 0x0E, 0x0D, 0x0C ; ........
  52DE  DB 0x0B, 0x0A, 0x09, 0x80, 0x03, 0x00, 0x01, 0x0F ; ........
  52E6  DB 0x07, 0x0C, 0x02, 0x00, 0xFE, 0x52, 0x01, 0x01 ; .....R..
  52EE  DB 0x0E, 0x03, 0x00, 0x02, 0x02, 0x8F, 0x53, 0x02 ; ......S.
  52F6  DB 0x03, 0x0E, 0x02, 0x00, 0x02, 0x01, 0xB5, 0x53 ; .......S
  52FE  DB 0x25, 0xE4, 0x27, 0x28, 0x25, 0xE2, 0x27, 0xE4 ; %.'(%.'.
  5306  DB 0x28, 0xE2, 0x27, 0xE4, 0x25, 0x27, 0x25, 0x27 ; (.'.%'%'
  530E  DB 0x28, 0x25, 0xE2, 0x27, 0xE4, 0x28, 0xE2, 0x27 ; (%.'.(.'
  5316  DB 0xE4, 0x25, 0x27, 0x28, 0x2A, 0x2C, 0x28, 0xE2 ; .%'(*,(.
  531E  DB 0x2A, 0xE4, 0x2C, 0xE2, 0x2A, 0xE4, 0x28, 0x2A ; *.,.*.(*
  5326  DB 0x28, 0x2A, 0x2C, 0x28, 0xE2, 0x2A, 0xE4, 0x2C ; (*,(.*.,
  532E  DB 0xE2, 0x2A, 0xE4, 0x28, 0x2A, 0x2D, 0x2F, 0x31 ; .*.(*-/1
  5336  DB 0x2D, 0xE2, 0x2F, 0xE4, 0x31, 0xE2, 0x2F, 0xE4 ; -./.1./.
  533E  DB 0x2D, 0x2F, 0x2D, 0x2F, 0x31, 0x2D, 0xE2, 0x2F ; -/-/1-./
  5346  DB 0xE4, 0x31, 0xE2, 0x2F, 0xE4, 0x2D, 0x2F, 0x2C ; .1./.-/,
  534E  DB 0x2E, 0x30, 0x2C, 0xE2, 0x2E, 0xE4, 0x30, 0xE2 ; .0,...0.
  5356  DB 0x2E, 0xE4, 0x2C, 0x2E, 0x2C, 0x2E, 0x30, 0x31 ; ..,.,.01
  535E  DB 0x33, 0x34, 0x36, 0x38, 0x3D, 0xE8, 0x3B, 0x39 ; 3468=.;9
  5366  DB 0xE2, 0x38, 0xE4, 0x36, 0xE2, 0x38, 0xF2, 0x3B ; .8.6.8.;
  536E  DB 0xE8, 0x39, 0x38, 0x36, 0xE6, 0x38, 0x39, 0xE8 ; .986.89.
  5376  DB 0x38, 0x36, 0x34, 0x33, 0xE2, 0x34, 0x33, 0x34 ; 8643.434
  537E  DB 0x33, 0x34, 0x33, 0x34, 0x33, 0x34, 0x33, 0x34 ; 34343434
  5386  DB 0x33, 0x34, 0x33, 0x34, 0x33, 0xEA, 0x80, 0xFE ; 34343...
  538E  DB 0x52, 0x88, 0x08, 0x8A, 0xAD, 0x53, 0x19, 0xE2 ; R....S..
  5396  DB 0x31, 0x25, 0x2C, 0x38, 0x31, 0x25, 0x25, 0x19 ; 1%,81%%.
  539E  DB 0x31, 0x25, 0x2C, 0x38, 0x31, 0x25, 0x25, 0x81 ; 1%,81%%.
  53A6  DB 0x91, 0x53, 0x85, 0xF9, 0x80, 0x8F, 0x53, 0x00 ; .S....S.
  53AE  DB 0xFF, 0x00, 0x05, 0x00, 0x03, 0x00, 0x00, 0x89 ; ........
  53B6  DB 0x06, 0x88, 0x08, 0x8A, 0xAD, 0x53, 0x19, 0xE4 ; .....S..
  53BE  DB 0xE4, 0xE2, 0xE2, 0xE2, 0xE2, 0xE4, 0xE4, 0xE2 ; ........
  53C6  DB 0xE2, 0xE2, 0xE2, 0x81, 0xB9, 0x53, 0x85, 0xF9 ; .....S..
  53CE  DB 0x80, 0xB7, 0x53, 0x02, 0x00, 0x01, 0x0E, 0x01 ; ..S.....
  53D6  DB 0x00, 0x02, 0x00, 0xE4, 0x53, 0x01, 0x01, 0x0E ; ....S...
  53DE  DB 0x01, 0x00, 0x02, 0x02, 0x0D, 0x54, 0x88, 0x10 ; .....T..
  53E6  DB 0x8A, 0x2C, 0x54, 0x31, 0xE2, 0x25, 0x2C, 0x25 ; .,T1.%,%
  53EE  DB 0x28, 0x25, 0x2A, 0x25, 0x31, 0x25, 0x2C, 0x25 ; (%*%1%,%
  53F6  DB 0x28, 0x25, 0x2A, 0x25, 0x81, 0xE6, 0x53, 0x88 ; (%*%..S.
  53FE  DB 0x04, 0x36, 0x31, 0x35, 0x31, 0x38, 0x31, 0x3D ; .615181=
  5406  DB 0x31, 0x81, 0xFF, 0x53, 0x80, 0xE4, 0x53, 0x88 ; 1..S..S.
  540E  DB 0x12, 0x8A, 0x2A, 0x54, 0x19, 0xE2, 0xE2, 0xE2 ; ..*T....
  5416  DB 0xE2, 0x25, 0xE4, 0x19, 0xE4, 0xE2, 0xE2, 0xE2 ; .%......
  541E  DB 0xE2, 0x25, 0xE4, 0x19, 0x81, 0x0F, 0x54, 0x85 ; .%....T.
  5426  DB 0xE8, 0x80, 0x0D, 0x54, 0x0C, 0x0C, 0x00, 0x01 ; ...T....
  542E  DB 0x01, 0x03, 0x00, 0xFB, 0x00, 0x07, 0x00, 0xFB ; ........
  5436  DB 0x00, 0x03, 0x00, 0xFB, 0x00, 0x00, 0x03, 0x02 ; ........
  543E  DB 0x41, 0x0F, 0x07, 0x00, 0x02, 0x00, 0x58, 0x54 ; A.....XT
  5446  DB 0x03, 0x43, 0x0F, 0x02, 0x00, 0x02, 0x01, 0xDC ; .C......
  544E  DB 0x54, 0x04, 0x41, 0x0F, 0x01, 0x00, 0x02, 0x02 ; T.A.....
  5456  DB 0x0A, 0x55, 0x31, 0xE2, 0x25, 0x2C, 0x25, 0x29 ; .U1.%,%)
  545E  DB 0x25, 0x2A, 0x25, 0x31, 0x25, 0x2C, 0x25, 0x29 ; %*%1%,%)
  5466  DB 0x2A, 0x2C, 0x31, 0x33, 0x25, 0x35, 0x25, 0x36 ; *,13%5%6
  546E  DB 0x25, 0x33, 0x25, 0x35, 0x25, 0x31, 0x25, 0x2C ; %3%5%1%,
  5476  DB 0x25, 0x29, 0x25, 0x2C, 0x20, 0x27, 0x20, 0x24 ; %)%, ' $
  547E  DB 0x20, 0x25, 0x20, 0x2C, 0x20, 0x27, 0x20, 0x24 ;  % , ' $
  5486  DB 0x20, 0x25, 0x20, 0x2C, 0x20, 0x2E, 0x20, 0x30 ;  % , . 0
  548E  DB 0x20, 0x2C, 0x20, 0x2E, 0x20, 0x30, 0x20, 0x31 ;  , . 0 1
  5496  DB 0x20, 0x33, 0x20, 0x36, 0x23, 0x33, 0x23, 0x2F ;  3 6#3#/
  549E  DB 0x23, 0x33, 0x23, 0x36, 0x23, 0x33, 0x23, 0x2F ; #3#6#3#/
  54A6  DB 0x23, 0x33, 0x23, 0x36, 0x23, 0x38, 0x23, 0x3A ; #3#6#8#:
  54AE  DB 0x23, 0x36, 0x23, 0x38, 0x23, 0x3A, 0x23, 0x3B ; #6#8#:#;
  54B6  DB 0x23, 0x3D, 0x23, 0x3A, 0x1E, 0x38, 0x1E, 0x36 ; #=#:.8.6
  54BE  DB 0x1E, 0x35, 0x1E, 0x36, 0x1E, 0x35, 0x1E, 0x33 ; .5.6.5.3
  54C6  DB 0x1E, 0x31, 0x1E, 0x2F, 0x2E, 0x2F, 0x1E, 0x2E ; .1././..
  54CE  DB 0x1E, 0x2F, 0x1E, 0x31, 0x2F, 0x2E, 0x2C, 0x2F ; ./.1/.,/
  54D6  DB 0x2E, 0x2C, 0x2A, 0x80, 0x58, 0x54, 0x89, 0x09 ; .,*.XT..
  54DE  DB 0x88, 0x0F, 0x8A, 0xFB, 0x54, 0x19, 0xE2, 0xE2 ; ....T...
  54E6  DB 0xE2, 0xE2, 0x25, 0xE4, 0x19, 0x81, 0xE0, 0x54 ; ..%....T
  54EE  DB 0x12, 0xE2, 0x2A, 0x1E, 0x36, 0x36, 0xE4, 0xE4 ; ..*.66..
  54F6  DB 0x85, 0x07, 0x80, 0xDE, 0x54, 0x00, 0x00, 0xFB ; ....T...
  54FE  DB 0x00, 0x00, 0x00, 0x03, 0x00, 0x00, 0x00, 0xFB ; ........
  5506  DB 0x00, 0x00, 0x00, 0x00, 0x8C, 0x01, 0xFF, 0x88 ; ........
  550E  DB 0x10, 0x86, 0x0F, 0x49, 0xE2, 0x49, 0x86, 0xFF ; ...I.I..
  5516  DB 0x81, 0x11, 0x55, 0x80, 0x0D, 0x55, 0x03, 0x02 ; ..U..U..
  551E  DB 0x41, 0x0F, 0x06, 0x05, 0x03, 0x00, 0x38, 0x55 ; A.....8U
  5526  DB 0x03, 0x41, 0x0F, 0x06, 0x05, 0x03, 0x01, 0x63 ; .A.....c
  552E  DB 0x55, 0x04, 0x41, 0x0E, 0x06, 0x05, 0x03, 0x02 ; U.A.....
  5536  DB 0x7F, 0x55, 0x31, 0xE1, 0x2F, 0x31, 0xE8, 0x00 ; .U1./1..
  553E  DB 0xE3, 0x34, 0xE6, 0x36, 0x33, 0xE8, 0x00, 0xE5 ; .4.63...
  5546  DB 0x31, 0xE3, 0x00, 0x31, 0xE9, 0x86, 0xFE, 0x84 ; 1..1....
  554E  DB 0x05, 0x28, 0xE5, 0x27, 0x2A, 0x28, 0x27, 0x25 ; .(.'*('%
  5556  DB 0x28, 0xE3, 0x27, 0x25, 0x23, 0x25, 0xE5, 0x24 ; (.'%#%.$
  555E  DB 0x25, 0x27, 0x25, 0xE9, 0x82, 0x25, 0xF1, 0x00 ; %'%..%..
  5566  DB 0xE3, 0x21, 0xE6, 0x23, 0x20, 0xE8, 0x00, 0xE5 ; .!.# ...
  556E  DB 0x2C, 0xE3, 0x00, 0x2C, 0xE9, 0x86, 0xFD, 0x00 ; ,..,....
  5576  DB 0xE7, 0x23, 0x21, 0x20, 0x1E, 0x20, 0x1C, 0xE9 ; .#! . ..
  557E  DB 0x82, 0x19, 0xF1, 0x00, 0xE3, 0x15, 0xE6, 0x17 ; ........
  5586  DB 0x14, 0xE8, 0x00, 0xE5, 0x19, 0xE3, 0x00, 0x19 ; ........
  558E  DB 0xE9, 0x86, 0xFD, 0x19, 0xDF, 0x7C, 0x84, 0x01 ; .....|..
  5596  DB 0x19, 0xE3, 0x82, 0x02, 0x00, 0x03, 0x00, 0x00 ; ........
  559E  DB 0x00, 0x02, 0x00, 0xAC, 0x55, 0x01, 0x01, 0x0A ; ....U...
  55A6  DB 0x07, 0x01, 0x02, 0x01, 0xC5, 0x55, 0x89, 0x08 ; .....U..
  55AE  DB 0x86, 0x03, 0x88, 0x04, 0x19, 0xE2, 0x86, 0x02 ; ........
  55B6  DB 0x81, 0xB2, 0x55, 0x88, 0x10, 0x19, 0xE2, 0x86 ; ..U.....
  55BE  DB 0xFF, 0x81, 0xBB, 0x55, 0x80, 0xAE, 0x55, 0x2E ; ...U..U.
  55C6  DB 0xE2, 0x2A, 0x2E, 0x30, 0x34, 0x38, 0x36, 0x31 ; .*.04861
  55CE  DB 0x2E, 0x2A, 0x2E, 0x30, 0x34, 0x33, 0x31, 0x2F ; .*.0431/
  55D6  DB 0x30, 0x25, 0x2A, 0x2E, 0x31, 0x30, 0x2A, 0x27 ; 0%*.10*'
  55DE  DB 0x29, 0x2C, 0x31, 0x36, 0x31, 0x80, 0xC5, 0x55 ; ),161..U
  55E6  DB 0x01, 0x03, 0x01, 0x0F, 0x00, 0x00, 0x01, 0x01 ; ........
  55EE  DB 0xF0, 0x55, 0x8C, 0x84, 0xFF, 0x16, 0xE6, 0x8C ; .U......
  55F6  DB 0x00, 0xFF, 0x8B, 0x04, 0x40, 0x22, 0xE8, 0x82 ; ....@"..
  55FE  DB 0x03, 0x02, 0x41, 0x0F, 0x07, 0x00, 0x02, 0x00 ; ..A.....
  5606  DB 0x1A, 0x56, 0x03, 0x41, 0x0E, 0x03, 0x00, 0x02 ; .V.A....
  560E  DB 0x01, 0x2A, 0x56, 0x04, 0x43, 0x0E, 0x02, 0x00 ; .*V.C...
  5616  DB 0x02, 0x02, 0x39, 0x56, 0x2C, 0xE4, 0x31, 0x38 ; ..9V,.18
  561E  DB 0x36, 0xE2, 0x38, 0xE4, 0xE2, 0x3B, 0xE4, 0x3A ; 6.8..;.:
  5626  DB 0x36, 0x38, 0xEA, 0x82, 0x88, 0x04, 0x20, 0xE2 ; 68.... .
  562E  DB 0x2C, 0x25, 0x19, 0x19, 0x19, 0x25, 0x19, 0x81 ; ,%...%..
  5636  DB 0x2C, 0x56, 0x82, 0x89, 0x06, 0x31, 0xE2, 0xE4 ; ,V...1..
  563E  DB 0xE2, 0xE4, 0x2F, 0xE2, 0xE4, 0xE2, 0xE4, 0x2A ; ../....*
  5646  DB 0xE2, 0xE4, 0xE2, 0x2C, 0xE4, 0x2F, 0xE2, 0x31 ; ...,./.1
  564E  DB 0xE2, 0x2C, 0xE4, 0x2F, 0xE2, 0x31, 0x2C, 0xE4 ; .,./.1,.
  5656  DB 0x2F, 0xE2, 0x31, 0x2F, 0x2E, 0x2C, 0x2A, 0x87 ; /.1/.,*.
  565E  DB 0x01, 0x82, 0x02, 0x03, 0x61, 0x0F, 0x07, 0x00 ; ....a...
  5666  DB 0x02, 0x00, 0x73, 0x56, 0x04, 0x41, 0x0F, 0x07 ; ..sV.A..
  566E  DB 0x00, 0x02, 0x01, 0x7F, 0x56, 0x38, 0xE5, 0x38 ; ....V8.8
  5676  DB 0xE3, 0x3C, 0x3A, 0x38, 0x3C, 0x41, 0x3F, 0xE7 ; .<:8<A?.
  567E  DB 0x82, 0x35, 0xE5, 0x35, 0xE3, 0x35, 0x36, 0x36 ; .5.5.566
  5686  DB 0x38, 0x38, 0x3C, 0xE7, 0x82, 0x02, 0x03, 0x61 ; 88<....a
  568E  DB 0x0F, 0x01, 0xF4, 0x02, 0x00, 0x9E, 0x56, 0x04 ; ......V.
  5696  DB 0x41, 0x0F, 0x03, 0x00, 0x02, 0x01, 0xAE, 0x56 ; A......V
  569E  DB 0x31, 0xE2, 0x2C, 0x31, 0x2C, 0x31, 0x2C, 0x31 ; 1.,1,1,1
  56A6  DB 0x2C, 0x31, 0xE4, 0x35, 0xE2, 0x3D, 0xE8, 0x82 ; ,1.5.=..
  56AE  DB 0x25, 0xE2, 0x29, 0x2C, 0x31, 0x35, 0x38, 0x3D ; %.),158=
  56B6  DB 0x38, 0x2C, 0xE4, 0x31, 0xE2, 0x35, 0xE8, 0x82 ; 8,.1.5..
  56BE  DB 0x03, 0x02, 0x41, 0x0F, 0x07, 0x0C, 0x02, 0x00 ; ..A.....
  56C6  DB 0xDA, 0x56, 0x03, 0x41, 0x0C, 0x03, 0x00, 0x02 ; .V.A....
  56CE  DB 0x01, 0x50, 0x57, 0x04, 0x43, 0x0D, 0x02, 0x00 ; .PW.C...
  56D6  DB 0x02, 0x02, 0x85, 0x57, 0x00, 0xE2, 0x25, 0x23 ; ...W..%#
  56DE  DB 0xE4, 0x25, 0x27, 0x28, 0x27, 0xE2, 0x28, 0xE4 ; .%'('.(.
  56E6  DB 0x2A, 0xE2, 0x28, 0xE4, 0x27, 0xE8, 0x23, 0x00 ; *.(.'.#.
  56EE  DB 0xE2, 0x28, 0x27, 0xE4, 0x28, 0x2A, 0x2C, 0x2A ; .('.(*,*
  56F6  DB 0xE2, 0x2C, 0xE4, 0x2D, 0xE2, 0x2C, 0xE4, 0x2A ; .,.-.,.*
  56FE  DB 0xE8, 0x2E, 0x00, 0xE2, 0x31, 0x2F, 0xE4, 0x31 ; ....1/.1
  5706  DB 0x33, 0x34, 0x33, 0xE2, 0x34, 0xE4, 0x36, 0xE2 ; 343.4.6.
  570E  DB 0x34, 0xE4, 0x33, 0xE8, 0x2F, 0x2D, 0x2C, 0x00 ; 4.3./-,.
  5716  DB 0xE4, 0x2C, 0xE2, 0x2D, 0x2F, 0xE4, 0x2C, 0x2E ; .,.-/.,.
  571E  DB 0xE8, 0x31, 0x34, 0xE2, 0xE4, 0xE4, 0xE4, 0xE2 ; .14.....
  5726  DB 0xE8, 0x33, 0xE6, 0x36, 0x31, 0xE2, 0xE4, 0xE4 ; .3.61...
  572E  DB 0xE4, 0xE2, 0xE8, 0x2F, 0xE6, 0x33, 0x34, 0xE2 ; .../.34.
  5736  DB 0xE4, 0xE4, 0xE4, 0xE2, 0xE8, 0x33, 0xE6, 0x36 ; .....3.6
  573E  DB 0x31, 0xE2, 0xE4, 0xE4, 0xE4, 0xE2, 0xE8, 0x2F ; 1....../
  5746  DB 0xE4, 0x31, 0x33, 0xE6, 0x34, 0xEA, 0x00, 0x80 ; .13.4...
  574E  DB 0xDA, 0x56, 0x88, 0x21, 0x8A, 0x64, 0x57, 0x19 ; .V.!.dW.
  5756  DB 0xE2, 0x31, 0x25, 0x2C, 0x38, 0x31, 0x25, 0x19 ; .1%,81%.
  575E  DB 0x81, 0x52, 0x57, 0x80, 0x50, 0x57, 0x00, 0x00 ; .RW.PW..
  5766  DB 0x00, 0x02, 0x02, 0x00, 0xFE, 0xFE, 0x00, 0x02 ; ........
  576E  DB 0x02, 0x00, 0xFE, 0xFE, 0x00, 0xFB, 0x00, 0x02 ; ........
  5776  DB 0x00, 0x00, 0x05, 0x00, 0xFE, 0x00, 0xFB, 0x00 ; ........
  577E  DB 0x02, 0x00, 0x05, 0x00, 0xFE, 0x00, 0x00, 0x89 ; ........
  5786  DB 0x06, 0x88, 0x21, 0x8A, 0x64, 0x57, 0x25, 0xE4 ; ..!.dW%.
  578E  DB 0xE4, 0xE2, 0xE2, 0xE2, 0xE2, 0x81, 0x89, 0x57 ; .......W
  5796  DB 0x80, 0x87, 0x57, 0x03, 0x00, 0x01, 0x0F, 0x00 ; ..W.....
  579E  DB 0x00, 0x01, 0x00, 0xB5, 0x57, 0x01, 0x03, 0x0F ; ....W...
  57A6  DB 0x00, 0x0C, 0x01, 0x01, 0xB5, 0x57, 0x02, 0x01 ; .....W..
  57AE  DB 0x0F, 0x01, 0x0C, 0x01, 0x02, 0xBD, 0x57, 0x89 ; ......W.
  57B6  DB 0x04, 0x8B, 0x00, 0x18, 0x25, 0xEF, 0x82, 0x8B ; ....%...
  57BE  DB 0x00, 0x18, 0x30, 0xE4, 0x34, 0x38, 0x36, 0x31 ; ..0.4861
  57C6  DB 0x2E, 0x2A, 0x22, 0x3A, 0x34, 0x83, 0xC0, 0x57 ; .*":4..W
  57CE  DB 0x82, 0x03, 0x00, 0x01, 0x0F, 0x00, 0x04, 0x02 ; ........
  57D6  DB 0x00, 0xEB, 0x57, 0x01, 0x01, 0x0F, 0x00, 0x06 ; ..W.....
  57DE  DB 0x02, 0x01, 0xEB, 0x57, 0x02, 0x01, 0x0F, 0x01 ; ...W....
  57E6  DB 0x01, 0x01, 0x02, 0xF7, 0x57, 0x0D, 0xE4, 0x88 ; ....W...
  57EE  DB 0x10, 0x0D, 0xE3, 0x86, 0xFF, 0x81, 0xEF, 0x57 ; .......W
  57F6  DB 0x82, 0x31, 0xE2, 0x3D, 0x31, 0x3E, 0x31, 0x3F ; .1.=1>1?
  57FE  DB 0x31, 0x40, 0x31, 0x41, 0x00, 0xEB, 0x87, 0x05 ; 1@1A....
  5806  DB 0x82, 0x01, 0x03, 0x01, 0x0F, 0x00, 0x00, 0x01 ; ........
  580E  DB 0x02, 0x11, 0x58, 0x8C, 0x82, 0xFF, 0x42, 0xE3 ; ..X...B.
  5816  DB 0x82, 0x01, 0x03, 0x01, 0x0F, 0x00, 0x00, 0x01 ; ........
  581E  DB 0x02, 0x21, 0x58, 0x8C, 0x81, 0xFF, 0x2A, 0xE1 ; .!X...*.
  5826  DB 0x2A, 0xE3, 0x82, 0x01, 0x03, 0x01, 0x0F, 0x00 ; *.......
  582E  DB 0x08, 0x01, 0x02, 0x33, 0x58, 0x8C, 0x81, 0xFF ; ...3X...
  5836  DB 0x31, 0xE1, 0x33, 0x31, 0x33, 0x36, 0x38, 0x3A ; 1.31368:
  583E  DB 0x3C, 0x38, 0x00, 0x36, 0x38, 0x82, 0x01, 0x04 ; <8.68...
  5846  DB 0x03, 0x0F, 0x00, 0x00, 0x01, 0x02, 0x4E, 0x58 ; ......NX
  584E  DB 0x89, 0x10, 0x8B, 0x00, 0x20, 0x8C, 0x86, 0xFF ; .... ...
  5856  DB 0x12, 0xEC, 0x82, 0x01, 0x03, 0x03, 0x0F, 0x04 ; ........
  585E  DB 0x00, 0x01, 0x02, 0x63, 0x58, 0x8C, 0x03, 0xFF ; ...cX...
  5866  DB 0x25, 0xE6, 0x82, 0x01, 0x04, 0x03, 0x0F, 0x00 ; %.......
  586E  DB 0x00, 0x01, 0x02, 0x73, 0x58, 0x89, 0x1C, 0x8C ; ...sX...
  5876  DB 0x82, 0xFF, 0x03, 0xE5, 0x89, 0x1F, 0x88, 0x08 ; ........
  587E  DB 0x84, 0x01, 0x0F, 0xE3, 0x86, 0xFF, 0x81, 0x80 ; ........
  5886  DB 0x58, 0x82, 0x01, 0x04, 0x01, 0x0F, 0x00, 0x00 ; X.......
  588E  DB 0x01, 0x02, 0x92, 0x58, 0x8B, 0x06, 0x20, 0x8C ; ...X.. .
  5896  DB 0x81, 0xFF, 0x2C, 0xE2, 0x2E, 0x83, 0x98, 0x58 ; ..,....X
  589E  DB 0x82, 0x01, 0x03, 0x01, 0x0F, 0x02, 0x00, 0x01 ; ........
  58A6  DB 0x02, 0xA9, 0x58, 0x52, 0xE3, 0x82, 0x01, 0x04 ; ..XR....
  58AE  DB 0x01, 0x0F, 0x01, 0x00, 0x01, 0x02, 0xB6, 0x58 ; .......X
  58B6  DB 0x8C, 0x01, 0xFF, 0x38, 0xE5, 0x8C, 0x82, 0xFF ; ...8....
  58BE  DB 0x20, 0x82, 0x01, 0x04, 0x03, 0x0F, 0x00, 0x00 ;  .......
  58C6  DB 0x01, 0x02, 0xCA, 0x58, 0x89, 0x0C, 0x8B, 0x00 ; ...X....
  58CE  DB 0x30, 0x19, 0xEA, 0x82, 0x01, 0x04, 0x01, 0x0F ; 0.......
  58D6  DB 0x00, 0x00, 0x01, 0x02, 0xDC, 0x58, 0x8C, 0x82 ; .....X..
  58DE  DB 0xFF, 0x8B, 0x0A, 0x18, 0x2E, 0xE3, 0x85, 0x02 ; ........
  58E6  DB 0x83, 0xE2, 0x58, 0x82, 0x01, 0x03, 0x01, 0x0F ; ..X.....
  58EE  DB 0x00, 0x00, 0x01, 0x01, 0xF4, 0x58, 0x8C, 0x81 ; .....X..
  58F6  DB 0xFF, 0x3D, 0xE2, 0x82, 0x03, 0x00, 0x01, 0x0F ; .=......
  58FE  DB 0x07, 0x00, 0x02, 0x00, 0x16, 0x59, 0x01, 0x01 ; .....Y..
  5906  DB 0x0E, 0x03, 0x00, 0x02, 0x01, 0x44, 0x59, 0x02 ; .....DY.
  590E  DB 0x01, 0x0E, 0x03, 0x00, 0x02, 0x02, 0x62, 0x59 ; ......bY
  5916  DB 0x88, 0x04, 0x19, 0xE4, 0x1B, 0x1C, 0x1B, 0x1E ; ........
  591E  DB 0x1B, 0x1C, 0x1B, 0x81, 0x18, 0x59, 0x19, 0x1B ; .....Y..
  5926  DB 0x1C, 0x1B, 0x1E, 0x1B, 0x1C, 0x1E, 0x88, 0x05 ; ........
  592E  DB 0x8A, 0x3F, 0x59, 0x19, 0x1B, 0x1C, 0x1B, 0x1E ; .?Y.....
  5936  DB 0x1B, 0x1C, 0x1B, 0x81, 0x2E, 0x59, 0x80, 0x16 ; .....Y..
  593E  DB 0x59, 0xFB, 0x00, 0xFE, 0x00, 0x07, 0x88, 0x0A ; Y.......
  5946  DB 0x8A, 0x58, 0x59, 0x00, 0xE4, 0x00, 0x17, 0x00 ; .XY.....
  594E  DB 0x19, 0x00, 0x17, 0x00, 0x81, 0x46, 0x59, 0x80 ; .....FY.
  5956  DB 0x44, 0x59, 0xFB, 0x00, 0xFE, 0x00, 0x07, 0x00 ; DY......
  595E  DB 0x00, 0x00, 0x00, 0x00, 0x88, 0x0A, 0x8A, 0x58 ; .......X
  5966  DB 0x59, 0x0D, 0xE2, 0x14, 0x0D, 0x14, 0x0D, 0x14 ; Y.......
  596E  DB 0x0D, 0x14, 0x0D, 0x14, 0x0D, 0x14, 0x0D, 0x14 ; ........
  5976  DB 0x0D, 0x14, 0x81, 0x64, 0x59, 0x80, 0x62, 0x59 ; ...dY.bY
  597E  DB 0x03, 0x02, 0x41, 0x0F, 0x07, 0x00, 0x02, 0x00 ; ..A.....
  5986  DB 0x9A, 0x59, 0x03, 0x41, 0x0F, 0x07, 0x00, 0x02 ; .Y.A....
  598E  DB 0x01, 0xA7, 0x59, 0x04, 0x41, 0x0D, 0x07, 0x00 ; ..Y.A...
  5996  DB 0x02, 0x02, 0xB2, 0x59, 0x2C, 0xE4, 0x29, 0xE2 ; ...Y,.).
  599E  DB 0x2A, 0x2C, 0xE8, 0x2E, 0xE6, 0xE6, 0x30, 0xEA ; *,....0.
  59A6  DB 0x82, 0x25, 0xE4, 0xE2, 0xE2, 0xE8, 0x27, 0xE6 ; .%....'.
  59AE  DB 0xE6, 0x29, 0xEA, 0x82, 0x0D, 0xE4, 0x19, 0xE2 ; .)......
  59B6  DB 0xE2, 0x0D, 0xE4, 0x19, 0xE2, 0xE2, 0x0D, 0xE4 ; ........
  59BE  DB 0x19, 0xE2, 0xE2, 0x13, 0xE4, 0x1F, 0xE2, 0xE2 ; ........
  59C6  DB 0x13, 0xE4, 0x1F, 0xE2, 0xE2, 0x1D, 0xE2, 0x24 ; .......$
  59CE  DB 0x1D, 0x24, 0x1D, 0x24, 0x1D, 0x24, 0x24, 0xE8 ; .$.$.$$.
  59D6  DB 0x82, 0x03, 0x02, 0x41, 0x0F, 0x07, 0x00, 0x02 ; ...A....
  59DE  DB 0x00, 0x03, 0x5A, 0x03, 0x41, 0x0F, 0x07, 0x00 ; ..Z.A...
  59E6  DB 0x02, 0x01, 0xFB, 0x59, 0x04, 0x41, 0x0F, 0x07 ; ...Y.A..
  59EE  DB 0x00, 0x02, 0x02, 0xF3, 0x59, 0x8B, 0x05, 0x18 ; ....Y...
  59F6  DB 0x00, 0xE6, 0x80, 0x06, 0x5A, 0x8B, 0x05, 0x18 ; ....Z...
  59FE  DB 0x00, 0xE4, 0x80, 0x06, 0x5A, 0x8B, 0x05, 0x18 ; ....Z...
  5A06  DB 0x2C, 0xE2, 0x31, 0x33, 0x38, 0x83, 0x06, 0x5A ; ,.138..Z
  5A0E  DB 0x82, 0xFF, 0xFF                         ; ...

; --- L5A11 ---
  5A11  CD BC 46    CALL L46BC
  5A14  3E 03       LD A,0x03
  5A16  CD 89 51    CALL L5189
  5A19  CD 3C 5C    CALL L5C3C
  5A1C  06 02       LD B,0x02
  5A1E  CD EC 5B    CALL L5BEC
  5A21  CD E2 42    CALL L42E2
  5A24  21 03 38    LD HL,0x3803
  5A27  CD 25 5C    CALL L5C25
  5A2A  53          LD D,E
  5A2B  43          LD B,E
  5A2C  4F          LD C,A
  5A2D  52          LD D,D
  5A2E  45          LD B,L
  5A2F  00          NOP
  5A30  21 11 38    LD HL,0x3811
  5A33  CD 28 5C    CALL L5C28
  5A36  54          LD D,H
  5A37  4F          LD C,A
  5A38  50          LD D,B
  5A39  00          NOP
  5A3A  CD 96 49    CALL L4996
  5A3D  06 05       LD B,0x05
  5A3F  3E 1C       LD A,0x1c
  5A41  21 FA E1    LD HL,0xe1fa

; --- L5A44 ---
  5A44  77          LD (HL),A
  5A45  C6 04       ADD A,0x04
  5A47  23          INC HL
  5A48  10 FA       DJNZ L5A44

; --- L5A4A ---
  5A4A  CD BC 46    CALL L46BC
  5A4D  D8          RET C
  5A4E  97          SUB A
  5A4F  32 F9 E1    LD (0xe1f9),A
  5A52  21 FA E1    LD HL,0xe1fa

; --- L5A55 ---
  5A55  E5          PUSH HL
  5A56  7E          LD A,(HL)
  5A57  A7          AND A
  5A58  28 11       JR Z,L5A6B
  5A5A  FE 1C       CP 0x1c
  5A5C  30 0D       JR NC,L5A6B
  5A5E  CD 91 5B    CALL L5B91
  5A61  3A F9 E1    LD A,(0xe1f9)
  5A64  85          ADD A,L
  5A65  6F          LD L,A
  5A66  3E 05       LD A,0x05
  5A68  CD A0 5B    CALL L5BA0

; --- L5A6B ---
  5A6B  21 F9 E1    LD HL,0xe1f9
  5A6E  34          INC (HL)
  5A6F  7E          LD A,(HL)
  5A70  E1          POP HL
  5A71  23          INC HL
  5A72  FE 05       CP 0x05
  5A74  20 DF       JR NZ,L5A55
  5A76  CD C8 5A    CALL L5AC8
  5A79  97          SUB A
  5A7A  32 F9 E1    LD (0xe1f9),A
  5A7D  21 FA E1    LD HL,0xe1fa
  5A80  0E 00       LD C,0x00

; --- L5A82 ---
  5A82  35          DEC (HL)
  5A83  F2 88 5A    JP P,L5A88
  5A86  0C          INC C
  5A87  34          INC (HL)

; --- L5A88 ---
  5A88  7E          LD A,(HL)
  5A89  FE 1C       CP 0x1c
  5A8B  30 10       JR NC,L5A9D
  5A8D  E5          PUSH HL
  5A8E  CD 91 5B    CALL L5B91
  5A91  3A F9 E1    LD A,(0xe1f9)
  5A94  85          ADD A,L
  5A95  6F          LD L,A
  5A96  3A F9 E1    LD A,(0xe1f9)
  5A99  CD A0 5B    CALL L5BA0
  5A9C  E1          POP HL

; --- L5A9D ---
  5A9D  3A F9 E1    LD A,(0xe1f9)
  5AA0  3C          INC A
  5AA1  32 F9 E1    LD (0xe1f9),A
  5AA4  23          INC HL
  5AA5  FE 05       CP 0x05
  5AA7  20 D9       JR NZ,L5A82
  5AA9  06 02       LD B,0x02
  5AAB  CD EC 5B    CALL L5BEC
  5AAE  79          LD A,C
  5AAF  FE 05       CP 0x05
  5AB1  DA 4A 5A    JP C,L5A4A
  5AB4  21 6E 39    LD HL,0x396e
  5AB7  CD 25 5C    CALL L5C25
  5ABA  41          LD B,C
  5ABB  2E 49       LD L,0x49
  5ABD  2E 00       LD L,0x00

; --- L5ABF ---
  5ABF  CD 06 43    CALL L4306
  5AC2  CD BC 46    CALL L46BC
  5AC5  D8          RET C
  5AC6  18 F7       JR L5ABF

; --- L5AC8 ---
  5AC8  21 E3 39    LD HL,0x39e3
  5ACB  CD 25 5C    CALL L5C25
  5ACE  47          LD B,A
  5ACF  41          LD B,C
  5AD0  4D          LD C,L
  5AD1  45          LD B,L
  5AD2  20 44       JR NZ,L5B18
  5AD4  45          LD B,L
  5AD5  53          LD D,E
  5AD6  49          LD C,C
  5AD7  47          LD B,A
  5AD8  4E          LD C,(HL)
  5AD9  20 20       JR NZ,L5AFB
  5ADB  20 42       JR NZ,L5B1F
  5ADD  59          LD E,C
  5ADE  20 43       JR NZ,L5B23
  5AE0  4F          LD C,A
  5AE1  4D          LD C,L
  5AE2  50          LD D,B
  5AE3  49          LD C,C
  5AE4  4C          LD C,H
  5AE5  45          LD B,L
  5AE6  00          NOP
  5AE7  21 03 3A    LD HL,0x3a03
  5AEA  CD 28 5C    CALL L5C28
  5AED  50          LD D,B
  5AEE  52          LD D,D
  5AEF  4F          LD C,A
  5AF0  44          LD B,H
  5AF1  55          LD D,L
  5AF2  43          LD B,E
  5AF3  45          LD B,L
  5AF4  44          LD B,H
  5AF5  20 20       JR NZ,L5B17
  5AF7  20 20       JR NZ,L5B19
  5AF9  20 20       JR NZ,L5B1B

; --- L5AFB ---
  5AFB  42          LD B,D
  5AFC  59          LD E,C
  5AFD  20 41       JR NZ,L5B40
  5AFF  41          LD B,C
  5B00  49          LD C,C
  5B01  00          NOP
  5B02  21 23 3A    LD HL,0x3a23
  5B05  CD 28 5C    CALL L5C28
  5B08  50          LD D,B
  5B09  52          LD D,D
  5B0A  45          LD B,L
  5B0B  53          LD D,E
  5B0C  45          LD B,L
  5B0D  4E          LD C,(HL)
  5B0E  54          LD D,H
  5B0F  45          LD B,L
  5B10  44          LD B,H
  5B11  20 20       JR NZ,L5B33
  5B13  20 20       JR NZ,L5B35
  5B15  20 42       JR NZ,L5B59

; --- L5B17 ---
  5B17  59          LD E,C

; --- L5B18 ---
  5B18  20 50       JR NZ,L5B6A
  5B1A  4F          LD C,A

; --- L5B1B ---
  5B1B  4E          LD C,(HL)
  5B1C  59          LD E,C
  5B1D  20 49       JR NZ,L5B68

; --- L5B1F ---
  5B1F  4E          LD C,(HL)
  5B20  43          LD B,E
  5B21  2E 00       LD L,0x00

; --- L5B23 ---
  5B23  21 43 3A    LD HL,0x3a43
  5B26  CD 28 5C    CALL L5C28
  5B29  43          LD B,E
  5B2A  4F          LD C,A
  5B2B  50          LD D,B
  5B2C  59          LD E,C
  5B2D  52          LD D,D
  5B2E  49          LD C,C
  5B2F  47          LD B,A
  5B30  48          LD C,B
  5B31  54          LD D,H
  5B32  20 40       JR NZ,L5B74
  5B34  20 31       JR NZ,L5B67
  5B36  39          ADD HL,SP
  5B37  38 36       JR C,L5B6F
  5B39  20 50       JR NZ,L5B8B
  5B3B  4F          LD C,A
  5B3C  4E          LD C,(HL)
  5B3D  59          LD E,C
  5B3E  20 49       JR NZ,L5B89

; --- L5B40 ---
  5B40  4E          LD C,(HL)
  5B41  43          LD B,E
  5B42  2E 00       LD L,0x00
  5B44  21 8E 3A    LD HL,0x3a8e
  5B47  CD 28 5C    CALL L5C28
  5B4A  E7          RST 0x20
  5B4B  E9          JP (HL)
  5B4C  DB 0xEB, 0x00, 0x21, 0xAE, 0x3A, 0xCD, 0x28, 0x5C ; ..!.:.(\
  5B54  DB 0xE8, 0xEA, 0xEC, 0x00, 0xC9             ; .....

; --- L5B59 ---
  5B59  07          RLCA
  5B5A  05          DEC B
  5B5B  07          RLCA
  5B5C  06 08       LD B,0x08
  5B5E  07          RLCA
  5B5F  09          ADD HL,BC
  5B60  07          RLCA
  5B61  0A          LD A,(BC)
  5B62  07          RLCA
  5B63  0B          DEC BC
  5B64  07          RLCA
  5B65  0C          INC C
  5B66  06 0D       LD B,0x0d

; --- L5B68 ---
  5B68  05          DEC B
  5B69  0D          DEC C

; --- L5B6A ---
  5B6A  04          INC B
  5B6B  0D          DEC C
  5B6C  03          INC BC
  5B6D  0C          INC C
  5B6E  02          LD (BC),A

; --- L5B6F ---
  5B6F  0B          DEC BC
  5B70  01 0A 01    LD BC,0x010a
  5B73  09          ADD HL,BC

; --- L5B74 ---
  5B74  01 07 01    LD BC,0x0107
  5B77  05          DEC B
  5B78  02          LD (BC),A
  5B79  03          INC BC
  5B7A  04          INC B
  5B7B  03          INC BC
  5B7C  06 03       LD B,0x03
  5B7E  08          EX AF,AF'
  5B7F  03          INC BC
  5B80  0B          DEC BC
  5B81  05          DEC B
  5B82  0E 08       LD C,0x08
  5B84  11 0B 13    LD DE,0x130b
  5B87  0F          RRCA
  5B88  14          INC D

; --- L5B89 ---
  5B89  13          INC DE
  5B8A  15          DEC D

; --- L5B8B ---
  5B8B  17          RLA
  5B8C  15          DEC D
  5B8D  18 15       JR L5BA4
  5B8F  DB 0x1F, 0x15                               ; ..

; --- L5B91 ---
  5B91  C5          PUSH BC
  5B92  87          ADD A,A
  5B93  01 59 5B    LD BC,0x5b59
  5B96  6F          LD L,A
  5B97  26 00       LD H,0x00
  5B99  09          ADD HL,BC
  5B9A  56          LD D,(HL)
  5B9B  23          INC HL
  5B9C  5E          LD E,(HL)
  5B9D  EB          EX DE,HL
  5B9E  C1          POP BC
  5B9F  C9          RET

; --- L5BA0 ---
  5BA0  C5          PUSH BC
  5BA1  D5          PUSH DE
  5BA2  E5          PUSH HL
  5BA3  F5          PUSH AF

; --- L5BA4 ---
  5BA4  06 12       LD B,0x12
  5BA6  7D          LD A,L
  5BA7  FE 18       CP 0x18
  5BA9  30 2D       JR NC,L5BD8
  5BAB  7C          LD A,H
  5BAC  FE 20       CP 0x20
  5BAE  30 28       JR NC,L5BD8
  5BB0  FE 0E       CP 0x0e
  5BB2  38 04       JR C,L5BB8
  5BB4  2F          CPL
  5BB5  C6 21       ADD A,0x21
  5BB7  47          LD B,A

; --- L5BB8 ---
  5BB8  CD DD 5B    CALL L5BDD
  5BBB  CD ED 42    CALL L42ED
  5BBE  CD 53 00    CALL 0x0053   ; BIOS:SETWRT
  5BC1  F1          POP AF
  5BC2  F5          PUSH AF
  5BC3  4F          LD C,A
  5BC4  87          ADD A,A
  5BC5  87          ADD A,A
  5BC6  87          ADD A,A
  5BC7  81          ADD A,C
  5BC8  87          ADD A,A
  5BC9  81          ADD A,C
  5BCA  5F          LD E,A
  5BCB  16 00       LD D,0x00
  5BCD  21 27 48    LD HL,0x4827
  5BD0  19          ADD HL,DE

; --- L5BD1 ---
  5BD1  7E          LD A,(HL)
  5BD2  CD FC 5B    CALL L5BFC
  5BD5  23          INC HL
  5BD6  10 F9       DJNZ L5BD1

; --- L5BD8 ---
  5BD8  F1          POP AF
  5BD9  E1          POP HL
  5BDA  D1          POP DE
  5BDB  C1          POP BC
  5BDC  C9          RET

; --- L5BDD ---
  5BDD  5C          LD E,H
  5BDE  26 00       LD H,0x00
  5BE0  54          LD D,H
  5BE1  29          ADD HL,HL
  5BE2  29          ADD HL,HL
  5BE3  29          ADD HL,HL
  5BE4  29          ADD HL,HL
  5BE5  29          ADD HL,HL
  5BE6  19          ADD HL,DE
  5BE7  11 00 38    LD DE,0x3800
  5BEA  19          ADD HL,DE
  5BEB  C9          RET

; --- L5BEC ---
  5BEC  97          SUB A
  5BED  32 F8 E1    LD (0xe1f8),A

; --- L5BF0 ---
  5BF0  CD F8 42    CALL L42F8
  5BF3  3A F8 E1    LD A,(0xe1f8)
  5BF6  A7          AND A
  5BF7  28 F7       JR Z,L5BF0
  5BF9  10 F1       DJNZ L5BEC
  5BFB  C9          RET

; --- L5BFC ---
  5BFC  F3          DI
  5BFD  C5          PUSH BC
  5BFE  ED 4B 07 00 LD BC,(0x0007)
  5C02  ED 79       OUT (C),A
  5C04  C1          POP BC
  5C05  FB          EI
  5C06  C9          RET

; --- L5C07 ---
  5C07  C5          PUSH BC
  5C08  ED 4B 07 00 LD BC,(0x0007)
  5C0C  ED 79       OUT (C),A
  5C0E  C1          POP BC
  5C0F  C9          RET

; --- L5C10 ---
  5C10  F3          DI

; --- L5C11 ---
  5C11  7E          LD A,(HL)
  5C12  A7          AND A
  5C13  23          INC HL
  5C14  C2 19 5C    JP NZ,L5C19
  5C17  FB          EI
  5C18  C9          RET

; --- L5C19 ---
  5C19  CD 07 5C    CALL L5C07
  5C1C  C3 11 5C    JP L5C11

; --- L5C1F ---
  5C1F  E3          EX (SP),HL
  5C20  CD 10 5C    CALL L5C10
  5C23  E3          EX (SP),HL
  5C24  C9          RET

; --- L5C25 ---
  5C25  CD ED 42    CALL L42ED

; --- L5C28 ---
  5C28  CD 53 00    CALL 0x0053   ; BIOS:SETWRT
  5C2B  C3 1F 5C    JP L5C1F

; --- L5C2E ---
  5C2E  E3          EX (SP),HL
  5C2F  D5          PUSH DE
  5C30  87          ADD A,A
  5C31  5F          LD E,A
  5C32  16 00       LD D,0x00
  5C34  19          ADD HL,DE
  5C35  5E          LD E,(HL)
  5C36  23          INC HL
  5C37  56          LD D,(HL)
  5C38  EB          EX DE,HL
  5C39  D1          POP DE
  5C3A  E3          EX (SP),HL
  5C3B  C9          RET

; --- L5C3C ---
  5C3C  01 00 08    LD BC,0x0800
  5C3F  11 2C 5D    LD DE,0x5d2c
  5C42  21 80 05    LD HL,0x0580
  5C45  CD CF 5C    CALL L5CCF
  5C48  09          ADD HL,BC
  5C49  CD CF 5C    CALL L5CCF
  5C4C  09          ADD HL,BC
  5C4D  CD CF 5C    CALL L5CCF
  5C50  11 F0 5E    LD DE,0x5ef0
  5C53  09          ADD HL,BC
  5C54  09          ADD HL,BC
  5C55  CD CF 5C    CALL L5CCF
  5C58  09          ADD HL,BC
  5C59  CD CF 5C    CALL L5CCF
  5C5C  09          ADD HL,BC
  5C5D  C3 CF 5C    JP L5CCF

; --- L5C60 ---
  5C60  01 00 08    LD BC,0x0800
  5C63  11 6F 66    LD DE,0x666f
  5C66  21 B8 00    LD HL,0x00b8
  5C69  CD CF 5C    CALL L5CCF
  5C6C  09          ADD HL,BC
  5C6D  CD CF 5C    CALL L5CCF
  5C70  09          ADD HL,BC
  5C71  CD CF 5C    CALL L5CCF
  5C74  11 A9 68    LD DE,0x68a9
  5C77  09          ADD HL,BC
  5C78  09          ADD HL,BC
  5C79  CD CF 5C    CALL L5CCF
  5C7C  09          ADD HL,BC
  5C7D  CD CF 5C    CALL L5CCF
  5C80  09          ADD HL,BC
  5C81  CD CF 5C    CALL L5CCF
  5C84  11 05 67    LD DE,0x6705
  5C87  21 D8 02    LD HL,0x02d8
  5C8A  CD CF 5C    CALL L5CCF
  5C8D  09          ADD HL,BC
  5C8E  CD CF 5C    CALL L5CCF
  5C91  09          ADD HL,BC
  5C92  CD CF 5C    CALL L5CCF
  5C95  11 DD 68    LD DE,0x68dd
  5C98  09          ADD HL,BC
  5C99  09          ADD HL,BC
  5C9A  CD CF 5C    CALL L5CCF
  5C9D  09          ADD HL,BC
  5C9E  CD CF 5C    CALL L5CCF
  5CA1  09          ADD HL,BC
  5CA2  C3 CF 5C    JP L5CCF

; --- L5CA5 ---
  5CA5  01 00 08    LD BC,0x0800
  5CA8  11 FC 5E    LD DE,0x5efc
  5CAB  21 00 00    LD HL,0x0000
  5CAE  CD CF 5C    CALL L5CCF
  5CB1  09          ADD HL,BC
  5CB2  CD CF 5C    CALL L5CCF
  5CB5  09          ADD HL,BC
  5CB6  CD CF 5C    CALL L5CCF
  5CB9  11 76 69    LD DE,0x6976
  5CBC  09          ADD HL,BC
  5CBD  CD CF 5C    CALL L5CCF
  5CC0  11 D3 64    LD DE,0x64d3
  5CC3  09          ADD HL,BC
  5CC4  CD CF 5C    CALL L5CCF
  5CC7  09          ADD HL,BC
  5CC8  CD CF 5C    CALL L5CCF
  5CCB  09          ADD HL,BC
  5CCC  C3 CF 5C    JP L5CCF

; --- L5CCF ---
  5CCF  97          SUB A
  5CD0  C5          PUSH BC
  5CD1  D5          PUSH DE
  5CD2  E5          PUSH HL
  5CD3  F5          PUSH AF
  5CD4  CD 53 00    CALL 0x0053   ; BIOS:SETWRT
  5CD7  F3          DI
  5CD8  EB          EX DE,HL
  5CD9  F1          POP AF
  5CDA  16 FF       LD D,0xff
  5CDC  5F          LD E,A

; --- L5CDD ---
  5CDD  7E          LD A,(HL)
  5CDE  23          INC HL
  5CDF  BA          CP D
  5CE0  28 05       JR Z,L5CE7
  5CE2  CD 1A 5D    CALL L5D1A
  5CE5  18 F6       JR L5CDD

; --- L5CE7 ---
  5CE7  7E          LD A,(HL)
  5CE8  23          INC HL
  5CE9  BA          CP D
  5CEA  28 07       JR Z,L5CF3
  5CEC  2B          DEC HL
  5CED  7B          LD A,E
  5CEE  EE 01       XOR 0x01
  5CF0  5F          LD E,A
  5CF1  18 EA       JR L5CDD

; --- L5CF3 ---
  5CF3  7E          LD A,(HL)
  5CF4  23          INC HL
  5CF5  CD 2E 5C    CALL L5C2E
  5CF8  FE 5C       CP 0x5c
  5CFA  02          LD (BC),A
  5CFB  5D          LD E,L
  5CFC  06 5D       LD B,0x5d
  5CFE  E1          POP HL
  5CFF  D1          POP DE
  5D00  C1          POP BC
  5D01  C9          RET
  5D02  DB 0x56, 0x23, 0x18, 0xD7, 0x4E, 0x23, 0xE5, 0xE1 ; V#..N#..
  5D0A  DB 0xE5, 0x46, 0x23, 0x7E, 0x23, 0xCD, 0x1A, 0x5D ; .F#~#..]
  5D12  DB 0x10, 0xF9, 0x0D, 0x20, 0xF2, 0xF1, 0x18, 0xC3 ; ... ....

; --- L5D1A ---
  5D1A  C5          PUSH BC
  5D1B  CB 43       BIT 0,E
  5D1D  20 04       JR NZ,L5D23
  5D1F  06 01       LD B,0x01
  5D21  18 02       JR L5D25

; --- L5D23 ---
  5D23  46          LD B,(HL)
  5D24  23          INC HL

; --- L5D25 ---
  5D25  CD 07 5C    CALL L5C07
  5D28  10 FB       DJNZ L5D25
  5D2A  C1          POP BC
  5D2B  C9          RET
  5D2C  DB 0xFF, 0xFF, 0x01, 0xBB, 0x00, 0x01, 0x02, 0x05 ; ........
  5D34  DB 0x0B, 0x11, 0x3F, 0x00, 0xFF, 0x00, 0x7F, 0xFF ; ..?.....
  5D3C  DB 0xFF, 0xFF, 0xFF, 0x00, 0xFF, 0x00, 0xBB, 0xFF ; ........
  5D44  DB 0x05, 0xBB, 0x00, 0xFF, 0x00, 0xBB, 0xFF, 0x05 ; ........
  5D4C  DB 0xBB, 0xBF, 0xFF, 0x01, 0xFE, 0xFC, 0xF9, 0xF2 ; ........
  5D54  DB 0xE5, 0xCB, 0x9F, 0x21, 0x4F, 0xBF, 0x7F, 0xFF ; ...!O...
  5D5C  DB 0xFF, 0xFF, 0x7C, 0x42, 0x4F, 0x5F, 0x5F, 0x5F ; ..|BO___
  5D64  DB 0x5F, 0x5F, 0x00, 0x00, 0x00, 0x80, 0xC0, 0xE0 ; __......
  5D6C  DB 0xF0, 0xF8, 0x0F, 0x08, 0x09, 0xBB, 0x0B, 0x05 ; ........
  5D74  DB 0xBB, 0xF0, 0x10, 0xF0, 0xF0, 0xF0, 0xF0, 0xF0 ; ........
  5D7C  DB 0xF0, 0x00, 0x00, 0x01, 0x02, 0x05, 0x0B, 0x17 ; ........
  5D84  DB 0x2F, 0x7C, 0x84, 0x3C, 0xFC, 0xFD, 0xFD, 0xFD ; /|.<....
  5D8C  DB 0xFD, 0x1F, 0x20, 0x47, 0x9F, 0x3F, 0x7F, 0x7F ; .. G.?..
  5D94  DB 0x7F, 0xFF, 0x02, 0xFC, 0xF8, 0xF0, 0xE0, 0xC0 ; ........
  5D9C  DB 0x00, 0x01, 0x02, 0x05, 0x0B, 0x17, 0x2F, 0x5F ; ....../_
  5DA4  DB 0xBF, 0x7F, 0xFF, 0xFE, 0xFC, 0xF9, 0xF2, 0xE5 ; ........
  5DAC  DB 0xCB, 0x97, 0x2F, 0x5F, 0xBF, 0x7F, 0xFF, 0xFE ; ../_....
  5DB4  DB 0xFC, 0xBB, 0xFF, 0x04, 0xBF, 0x04, 0x5F, 0x08 ; ......_.
  5DBC  DB 0xBB, 0xFC, 0xFE, 0xFF, 0xFF, 0xFF, 0xBF, 0xDF ; ........
  5DC4  DB 0xAF, 0x0B, 0x0B, 0x0B, 0x8B, 0xCB, 0xEB, 0xFB ; ........
  5DCC  DB 0xFB, 0xF0, 0xF0, 0xF1, 0xF2, 0xE5, 0xCB, 0x97 ; ........
  5DD4  DB 0x2F, 0x5F, 0xBF, 0x7F, 0xFF, 0xFE, 0xFE, 0xFA ; /_......
  5DDC  DB 0xF2, 0xBB, 0xFD, 0x08, 0x7F, 0x08, 0xBB, 0x01 ; ........
  5DE4  DB 0x02, 0x05, 0x0B, 0x17, 0x2F, 0x5F, 0x80, 0x7F ; ..../_..
  5DEC  DB 0xFF, 0xFE, 0xFC, 0xF9, 0xF2, 0xE5, 0x48, 0x97 ; ......H.
  5DF4  DB 0x2F, 0x5F, 0xBF, 0x7F, 0xFF, 0xFE, 0x04, 0xF8 ; /_......
  5DFC  DB 0xF0, 0xE0, 0xC0, 0x80, 0x00, 0x00, 0x00, 0xBB ; ........
  5E04  DB 0xBF, 0x07, 0x81, 0x01, 0x5F, 0x07, 0xBB, 0x40 ; ...._..@
  5E0C  DB 0x97, 0x8B, 0x85, 0x82, 0x81, 0x80, 0x80, 0x80 ; ........
  5E14  DB 0xFA, 0xFC, 0xF9, 0xF2, 0x65, 0x8B, 0x17, 0x20 ; ....e.. 
  5E1C  DB 0x5F, 0xBF, 0x7F, 0xFF, 0xFE, 0xFC, 0xF8, 0x10 ; _.......
  5E24  DB 0xE2, 0xC2, 0x82, 0xBB, 0x02, 0x05, 0xFD, 0x07 ; ........
  5E2C  DB 0x05, 0x01, 0x7F, 0x07, 0xBB, 0x01, 0x01, 0x02 ; ........
  5E34  DB 0x04, 0x0B, 0x14, 0x2F, 0x5F, 0xBF, 0x00, 0x00 ; .../_...
  5E3C  DB 0x00, 0xBE, 0x3D, 0x1B, 0xF7, 0xE0, 0x90, 0x20 ; ..=.... 
  5E44  DB 0x40, 0xBF, 0x3F, 0x1F, 0xFE, 0x00, 0x18, 0x31 ; @.?....1
  5E4C  DB 0x62, 0xC5, 0x89, 0x10, 0x3F, 0x00, 0xFF, 0x00 ; b...?...
  5E54  DB 0x00, 0xFF, 0xFF, 0xFF, 0xFF, 0x00, 0x80, 0x00 ; ........
  5E5C  DB 0x00, 0xFF, 0xFF, 0xFF, 0xFF, 0x00, 0x40, 0x40 ; ......@@
  5E64  DB 0x40, 0x5F, 0x4F, 0x47, 0x7F, 0x00, 0x80, 0x80 ; @_OG....
  5E6C  DB 0x81, 0x82, 0x84, 0x88, 0x9F, 0x00, 0x40, 0x80 ; ......@.
  5E74  DB 0x43, 0xFF, 0xFE, 0x7C, 0xF8, 0x00, 0x23, 0x44 ; C..|..#D
  5E7C  DB 0x88, 0x17, 0x2F, 0x43, 0xFF, 0x00, 0x05, 0x05 ; ../C....
  5E84  DB 0x0D, 0x2C, 0xFC, 0xFC, 0xFC, 0x00, 0x01, 0x00 ; .,......
  5E8C  DB 0x00, 0x9F, 0x4F, 0x27, 0x1F, 0x00, 0xFF, 0x02 ; ..O'....
  5E94  DB 0x0C, 0xF8, 0xF0, 0xE0, 0xC0, 0x00, 0x01, 0x02 ; ........
  5E9C  DB 0x05, 0x09, 0x13, 0x21, 0x7F, 0x00, 0x7F, 0xBB ; ...!....
  5EA4  DB 0xFF, 0x06, 0xBB, 0x00, 0xFF, 0x80, 0xBB, 0xFF ; ........
  5EAC  DB 0x05, 0xBB, 0x00, 0xFF, 0x00, 0xBB, 0xFF, 0x05 ; ........
  5EB4  DB 0xBB, 0x00, 0xFF, 0x02, 0xFC, 0xF8, 0xF0, 0xE0 ; ........
  5EBC  DB 0xC0, 0x00, 0x3F, 0x7F, 0xBB, 0xFF, 0x05, 0xBB ; ..?.....
  5EC4  DB 0x00, 0xC4, 0xAA, 0xCA, 0x8A, 0x84, 0x00, 0x00 ; ........
  5ECC  DB 0x00, 0x81, 0xC3, 0xE7, 0xE7, 0xE7, 0xC3, 0x81 ; ........
  5ED4  DB 0x00, 0x95, 0xD5, 0xB2, 0x92, 0x92, 0x00, 0x00 ; ........
  5EDC  DB 0x00, 0xFC, 0xFE, 0xFF, 0xE0, 0xFF, 0xFE, 0xFC ; ........
  5EE4  DB 0x00, 0x32, 0x45, 0x47, 0x45, 0x35, 0x00, 0x00 ; .2EGE5..
  5EEC  DB 0x00, 0xBB, 0xBB, 0x00, 0xFF, 0xF0, 0x00, 0xF0 ; ........
  5EF4  DB 0x28, 0xE0, 0x90, 0x60, 0x30, 0xFF, 0xFF, 0x00 ; (..`0...
  5EFC  DB 0xFF, 0xFF, 0x01, 0x59, 0x59, 0x00, 0x08, 0x59 ; ...YY..Y
  5F04  DB 0x7E, 0x7E, 0x66, 0x5A, 0x5A, 0x66, 0x7E, 0x00 ; ~~fZZf~.
  5F0C  DB 0x59, 0xFF, 0x07, 0x00, 0x01, 0x7E, 0x70, 0x59 ; Y....~pY
  5F14  DB 0x3B, 0x55, 0xA0, 0x9E, 0x12, 0x9E, 0x00, 0x00 ; ;U......
  5F1C  DB 0xFC, 0x2E, 0x81, 0x3D, 0x25, 0x3D, 0x03, 0xD7 ; ...=%=..
  5F24  DB 0x7F, 0x00, 0xC5, 0x05, 0xA5, 0x15, 0x44, 0x21 ; ......D!
  5F2C  DB 0xFF, 0x00, 0xAB, 0xB5, 0xB5, 0xB7, 0x96, 0xB4 ; ........
  5F34  DB 0x73, 0x00, 0xB4, 0x2F, 0xA0, 0x1F, 0x40, 0x21 ; s../..@!
  5F3C  DB 0xEF, 0x00, 0x2F, 0xFB, 0x03, 0xFD, 0x02, 0xB4 ; ../.....
  5F44  DB 0xB7, 0xFD, 0x6F, 0xFF, 0xBB, 0xFE, 0xEF, 0x7B ; ..o....{
  5F4C  DB 0xA7, 0xED, 0x6F, 0x73, 0xB9, 0xA8, 0xED, 0x6B ; ..os...k
  5F54  DB 0xFF, 0xD5, 0xBB, 0xFC, 0xBD, 0xF8, 0xD3, 0xE9 ; ........
  5F5C  DB 0xC3, 0xA1, 0x60, 0x58, 0x68, 0xB1, 0xC3, 0xFF ; ..`Xh...
  5F64  DB 0xFF, 0xEF, 0xFF, 0xFD, 0x6F, 0xFF, 0xDB, 0xFF ; ....o...
  5F6C  DB 0xF8, 0xE8, 0xD5, 0xBE, 0xBF, 0x7F, 0x7D, 0x76 ; ......}v
  5F74  DB 0x1F, 0x07, 0x03, 0x81, 0xA1, 0x40, 0xF0, 0xA0 ; .....@..
  5F7C  DB 0xBF, 0x76, 0x6F, 0xB5, 0xBE, 0xDF, 0xEF, 0xF8 ; .vo.....
  5F84  DB 0xF8, 0xB8, 0x68, 0xD1, 0xE9, 0xD3, 0xC7, 0x9F ; ..h.....
  5F8C  DB 0x59, 0x00, 0x09, 0x59, 0x1C, 0x1C, 0x1C, 0x08 ; Y..Y....
  5F94  DB 0x00, 0x1C, 0x00, 0xBE, 0xEB, 0xBF, 0xFD, 0x6B ; .......k
  5F9C  DB 0xFE, 0xDB, 0xF7, 0xFF, 0xEF, 0xFF, 0xFD, 0x6F ; .......o
  5FA4  DB 0xFF, 0xDB, 0xFF, 0xD3, 0x72, 0xA3, 0x85, 0xE2 ; ....r...
  5FAC  DB 0xF5, 0xE4, 0xDB, 0xAB, 0x4D, 0x23, 0xC8, 0x13 ; ....M#..
  5FB4  DB 0xD9, 0x2E, 0x15, 0xBF, 0x6D, 0x67, 0xCC, 0x1B ; ....mg..
  5FBC  DB 0xFB, 0x6E, 0x15, 0xBF, 0xFD, 0x77, 0xFC, 0x5F ; .n...w._
  5FC4  DB 0xFB, 0xFE, 0xD7, 0xFF, 0xEF, 0xFF, 0xFD, 0xBF ; ........
  5FCC  DB 0xFF, 0xFD, 0xEF, 0xFF, 0xED, 0xFF, 0xF7, 0xDF ; ........
  5FD4  DB 0xFF, 0x7D, 0xEF, 0xD1, 0xA0, 0xEA, 0xD2, 0xF6 ; .}......
  5FDC  DB 0xFE, 0xFF, 0xFF, 0xFF, 0xFE, 0xCB, 0xEC, 0xE0 ; ........
  5FE4  DB 0x91, 0xCD, 0xC3, 0xFF, 0xFF, 0xBB, 0xF3, 0x97 ; ........
  5FEC  DB 0xA7, 0x8F, 0x03, 0x03, 0x8F, 0xCF, 0xAF, 0xAF ; ........
  5FF4  DB 0x7F, 0xFF, 0xFF, 0x59, 0x00, 0x05, 0x59, 0x30 ; ...Y..Y0
  5FFC  DB 0x30, 0x00, 0xF7, 0xE5, 0xC1, 0xC7, 0xCB, 0xED ; 0.......
  6004  DB 0xF3, 0xFD, 0x1E, 0x33, 0x33, 0x00, 0x66, 0x66 ; ...33.ff
  600C  DB 0x3C, 0x00, 0x02, 0x03, 0x03, 0x00, 0x06, 0x06 ; <.......
  6014  DB 0x04, 0x00, 0x1E, 0x03, 0x03, 0x1C, 0x60, 0x60 ; ......``
  601C  DB 0x3C, 0x00, 0x1E, 0x03, 0x03, 0x1C, 0x06, 0x06 ; <.......
  6024  DB 0x3C, 0x00, 0x12, 0x33, 0x33, 0x1C, 0x06, 0x06 ; <..33...
  602C  DB 0x04, 0x00, 0x1E, 0x30, 0x30, 0x1C, 0x06, 0x06 ; ...00...
  6034  DB 0x3C, 0x00, 0x1E, 0x30, 0x30, 0x1C, 0x66, 0x66 ; <..00.ff
  603C  DB 0x3C, 0x00, 0x1E, 0x03, 0x03, 0x00, 0x06, 0x06 ; <.......
  6044  DB 0x04, 0x00, 0x1E, 0x33, 0x33, 0x1C, 0x66, 0x66 ; ...33.ff
  604C  DB 0x3C, 0x00, 0x1E, 0x33, 0x33, 0x1C, 0x06, 0x06 ; <..33...
  6054  DB 0x3C, 0x00, 0x7F, 0x7F, 0xBF, 0x3F, 0x5F, 0x1F ; <....?_.
  605C  DB 0x2B, 0x01, 0x01, 0x57, 0x3F, 0x7F, 0x3F, 0x7F ; +..W?.?.
  6064  DB 0x7F, 0xFF, 0x10, 0xF8, 0xF9, 0xFE, 0xFF, 0xFE ; ........
  606C  DB 0xFF, 0xFF, 0xFF, 0xFE, 0xFE, 0xFC, 0xFE, 0x70 ; .......p
  6074  DB 0x90, 0x00, 0xF7, 0xBF, 0xFE, 0xEF, 0xFF, 0xFF ; ........
  607C  DB 0xFF, 0xBB, 0x59, 0x00, 0x08, 0x59, 0x7E, 0xC1 ; ..Y..Y~.
  6084  DB 0xDD, 0xD9, 0xDD, 0xC1, 0x7E, 0x00, 0x00, 0x3E ; ....~..>
  608C  DB 0x71, 0x71, 0x71, 0x7F, 0x71, 0x00, 0x00, 0x7E ; qqq.q..~
  6094  DB 0x71, 0x7E, 0x71, 0x71, 0x7E, 0x00, 0x00, 0x3E ; q~qq~..>
  609C  DB 0x71, 0x70, 0x70, 0x71, 0x3E, 0x00, 0x00, 0x7E ; qppq>..~
  60A4  DB 0x71, 0x71, 0x71, 0x71, 0x7E, 0x00, 0x00, 0x7F ; qqqq~...
  60AC  DB 0x70, 0x7E, 0x70, 0x70, 0x7F, 0x00, 0x00, 0x7F ; p~pp....
  60B4  DB 0x70, 0x70, 0x7F, 0x70, 0x70, 0x00, 0x00, 0x3E ; pp.pp..>
  60BC  DB 0x71, 0x70, 0x77, 0x73, 0x3E, 0x00, 0x00, 0x71 ; qpws>..q
  60C4  DB 0x71, 0x7F, 0x71, 0x71, 0x71, 0x00, 0x00, 0x1C ; q.qqq...
  60CC  DB 0x1C, 0x1C, 0x1C, 0x1C, 0x1C, 0x00, 0x00, 0x07 ; ........
  60D4  DB 0x07, 0x47, 0x47, 0x47, 0x3E, 0x00, 0x00, 0x73 ; .GGG>..s
  60DC  DB 0x76, 0x7C, 0x7C, 0x76, 0x73, 0x00, 0x00, 0x70 ; v||vs..p
  60E4  DB 0x70, 0x70, 0x70, 0x70, 0x7F, 0x00, 0x00, 0x71 ; pppp...q
  60EC  DB 0x7B, 0x7F, 0x75, 0x71, 0x71, 0x00, 0x00, 0x71 ; {.uqq..q
  60F4  DB 0x79, 0x7D, 0x77, 0x73, 0x71, 0x00, 0x00, 0x3E ; y}wsq..>
  60FC  DB 0x71, 0x71, 0x71, 0x71, 0x3E, 0x00, 0x00, 0x7E ; qqqq>..~
  6104  DB 0x71, 0x71, 0x7E, 0x70, 0x70, 0x00, 0x00, 0x3E ; qq~pp..>
  610C  DB 0x71, 0x71, 0x77, 0x73, 0x3F, 0x00, 0x00, 0x7E ; qqws?..~
  6114  DB 0x71, 0x71, 0x7E, 0x73, 0x73, 0x00, 0x00, 0x3E ; qq~ss..>
  611C  DB 0x71, 0x3C, 0x0E, 0x43, 0x3E, 0x00, 0x00, 0x7F ; q<.C>...
  6124  DB 0x1C, 0x1C, 0x1C, 0x1C, 0x1C, 0x00, 0x00, 0x71 ; .......q
  612C  DB 0x71, 0x71, 0x71, 0x71, 0x3E, 0x00, 0x00, 0x71 ; qqqq>..q
  6134  DB 0x71, 0x71, 0x73, 0x76, 0x7C, 0x00, 0x00, 0x71 ; qqsv|..q
  613C  DB 0x71, 0x75, 0x7F, 0x73, 0x61, 0x00, 0x00, 0x67 ; qu.sa..g
  6144  DB 0x3E, 0x1C, 0x3C, 0x76, 0x63, 0x00, 0x00, 0x71 ; >.<vc..q
  614C  DB 0x7B, 0x3E, 0x1C, 0x1C, 0x1C, 0x00, 0x00, 0x7F ; {>......
  6154  DB 0x0E, 0x1C, 0x38, 0x70, 0x7F, 0x00, 0x59, 0x59 ; ..8p..YY
  615C  DB 0x02, 0x03, 0xB8, 0x03, 0x0F, 0x57, 0x3F, 0x9F ; .....W?.
  6164  DB 0x7F, 0x3F, 0xFF, 0xC0, 0xD0, 0xFC, 0xF0, 0xFE ; .?......
  616C  DB 0xFC, 0xFA, 0xFF, 0xFF, 0x7F, 0x3F, 0x7F, 0x3F ; .....?.?
  6174  DB 0x4F, 0x1F, 0x03, 0xFF, 0xFE, 0xFC, 0xF6, 0xF8 ; O.......
  617C  DB 0xEC, 0xF4, 0x80, 0x00, 0x00, 0x00, 0x01, 0x03 ; ........
  6184  DB 0x1F, 0x3F, 0xFF, 0x01, 0x05, 0x17, 0x7F, 0xFF ; .?......
  618C  DB 0xFF, 0xFF, 0xFF, 0x80, 0xE8, 0xCC, 0xFE, 0xFF ; ........
  6194  DB 0xFF, 0xFF, 0xFF, 0x00, 0x00, 0x00, 0x00, 0xC0 ; ........
  619C  DB 0xE0, 0xF8, 0xFF, 0xFF, 0x1F, 0x0F, 0x03, 0x03 ; ........
  61A4  DB 0x00, 0x00, 0x00, 0xFF, 0xFF, 0xFF, 0x7F, 0x3F ; .......?
  61AC  DB 0x17, 0x01, 0x01, 0xFF, 0xFF, 0xFF, 0xFF, 0xFF ; ........
  61B4  DB 0xF8, 0xE0, 0x00, 0xFF, 0xFC, 0xF0, 0xC0, 0x00 ; ........
  61BC  DB 0x00, 0x00, 0x00, 0x01, 0x0B, 0x07, 0x03, 0x07 ; ........
  61C4  DB 0x07, 0x0F, 0x0F, 0xC0, 0xC0, 0xE0, 0xF0, 0xF0 ; ........
  61CC  DB 0xF8, 0xF4, 0xFA, 0x1F, 0x1F, 0x1F, 0x5F, 0xBF ; ......_.
  61D4  DB 0x3F, 0xFF, 0xFF, 0xFC, 0xFC, 0xFC, 0xFE, 0xFE ; ?.......
  61DC  DB 0xFE, 0xFF, 0xFF, 0xFF, 0xFF, 0x7F, 0x3F, 0x3F ; ......??
  61E4  DB 0x1F, 0x1F, 0x1F, 0xFF, 0xFF, 0xFE, 0xFC, 0xFC ; ........
  61EC  DB 0xFC, 0xF8, 0xF8, 0x1F, 0x0F, 0x07, 0x07, 0x03 ; ........
  61F4  DB 0x03, 0x03, 0x01, 0xF0, 0xF0, 0xF0, 0xF0, 0xE0 ; ........
  61FC  DB 0xC0, 0xC0, 0x80, 0xFF, 0xFF, 0xFF, 0xFF, 0xFF ; ........
  6204  DB 0xFF, 0xFF, 0xFF, 0x80, 0x80, 0x40, 0xC0, 0xA0 ; .....@..
  620C  DB 0xE0, 0xD4, 0xFE, 0xFE, 0xA8, 0xC0, 0x80, 0xC0 ; ........
  6214  DB 0x80, 0x80, 0x00, 0x00, 0x05, 0x14, 0x55, 0x50 ; ......UP
  621C  DB 0x41, 0x00, 0x01, 0x01, 0x12, 0x04, 0x48, 0x12 ; A.....H.
  6224  DB 0x20, 0x48, 0x80, 0x80, 0x48, 0x20, 0x12, 0x48 ;  H..H .H
  622C  DB 0x04, 0x12, 0x01, 0x00, 0x80, 0x00, 0x80, 0x00 ; ........
  6234  DB 0x80, 0x00, 0x80, 0x00, 0x01, 0x00, 0x01, 0x00 ; ........
  623C  DB 0x01, 0x00, 0x01, 0x00, 0x01, 0x00, 0x01, 0x00 ; ........
  6244  DB 0x01, 0x00, 0x25, 0x54, 0x01, 0x00, 0x01, 0x00 ; ..%T....
  624C  DB 0x01, 0x00, 0x01, 0x7F, 0x37, 0x1F, 0x0D, 0x07 ; ....7...
  6254  DB 0x03, 0x01, 0x00, 0x00, 0x01, 0x03, 0x07, 0x0D ; ........
  625C  DB 0x1F, 0x37, 0x7F, 0x80, 0xC0, 0xE0, 0xF0, 0xD8 ; .7......
  6264  DB 0xFC, 0xF6, 0xFF, 0xFF, 0xF6, 0xFC, 0xD8, 0xF0 ; ........
  626C  DB 0xE0, 0xC0, 0x80, 0x80, 0xC0, 0xE0, 0xF0, 0xB8 ; ........
  6274  DB 0xFC, 0xEE, 0xFF, 0xFE, 0xEC, 0xF8, 0xB0, 0xE0 ; ........
  627C  DB 0xC0, 0x80, 0x00, 0xFE, 0xEC, 0xF8, 0xB0, 0xE0 ; ........
  6284  DB 0xC0, 0x80, 0x00, 0xFF, 0x7F, 0x3F, 0x1F, 0x4F ; .....?.O
  628C  DB 0x07, 0x13, 0x01, 0x01, 0x13, 0x07, 0x4F, 0x1F ; ......O.
  6294  DB 0x3F, 0x7F, 0xFF, 0xFF, 0x55, 0x55, 0x55, 0x55 ; ?...UUUU
  629C  DB 0x55, 0x55, 0xFF, 0xFF, 0x81, 0xFF, 0x81, 0xFF ; UU......
  62A4  DB 0x81, 0xFF, 0x81, 0x01, 0x13, 0x07, 0x4F, 0x1F ; ......O.
  62AC  DB 0x3F, 0x7F, 0xFF, 0x80, 0xC8, 0xE0, 0xF2, 0xF8 ; ?.......
  62B4  DB 0xFC, 0xFE, 0xFF, 0xFF, 0x7F, 0x3F, 0x1F, 0x4F ; .....?.O
  62BC  DB 0x07, 0x13, 0x01, 0xFF, 0xFE, 0xFC, 0xF8, 0xF2 ; ........
  62C4  DB 0xE0, 0xC8, 0x80, 0x59, 0xFF, 0x10, 0x59, 0xDF ; ...Y..Y.
  62CC  DB 0xD7, 0xD5, 0xF5, 0xFD, 0xFF, 0xFF, 0xFF, 0x01 ; ........
  62D4  DB 0x13, 0x07, 0x4F, 0x1F, 0x3F, 0x7F, 0xFF, 0x80 ; ..O.?...
  62DC  DB 0xC8, 0xE0, 0xF2, 0xF8, 0xFC, 0xFE, 0xFF, 0xFF ; ........
  62E4  DB 0x7F, 0x3F, 0x1F, 0x4F, 0x07, 0x13, 0x01, 0xFF ; .?.O....
  62EC  DB 0xFE, 0xFC, 0xF8, 0xF2, 0xE0, 0xC8, 0x80, 0xFF ; ........
  62F4  DB 0x81, 0xFF, 0x81, 0xFF, 0x81, 0xFF, 0x81, 0xFF ; ........
  62FC  DB 0x7F, 0x3F, 0x1F, 0x4F, 0x07, 0x13, 0x01, 0x81 ; .?.O....
  6304  DB 0x3C, 0x66, 0x5A, 0x3C, 0x7E, 0x3C, 0x81, 0x81 ; <fZ<~<..
  630C  DB 0x3C, 0x66, 0x3C, 0x7E, 0x24, 0x7E, 0xBD, 0xBD ; <f<~$~..
  6314  DB 0x42, 0x3C, 0x7E, 0x66, 0x24, 0x00, 0xBD, 0x81 ; B<~f$...
  631C  DB 0x3C, 0x7E, 0x66, 0x66, 0x7E, 0x3C, 0x81, 0xB7 ; <~ff~<..
  6324  DB 0x40, 0x8F, 0x9F, 0x3F, 0x7F, 0x78, 0x03, 0xED ; @..?.x..
  632C  DB 0x02, 0xF1, 0xF9, 0xFC, 0xFE, 0x1E, 0xC0, 0x7B ; .......{
  6334  DB 0x7D, 0x3E, 0xDF, 0x8F, 0x87, 0x48, 0xBB, 0xDE ; }>...H..
  633C  DB 0xBE, 0x7E, 0xFD, 0xF9, 0xF1, 0x02, 0xED, 0x60 ; .~.....`
  6344  DB 0x9F, 0xBF, 0x7F, 0x7C, 0x03, 0xCB, 0x05, 0x06 ; ...|....
  634C  DB 0xF9, 0xFD, 0xFE, 0x3E, 0xC0, 0xF3, 0xF0, 0xC0 ; ...>....
  6354  DB 0x03, 0x7B, 0x79, 0x3C, 0xBF, 0x9F, 0x60, 0x03 ; .{y<..`.
  635C  DB 0xC0, 0xDE, 0x9E, 0x3C, 0xFD, 0xF9, 0x06, 0x40 ; ...<...@
  6364  DB 0x8F, 0x78, 0x00, 0x02, 0x65, 0x0C, 0x03, 0x02 ; .x..e...
  636C  DB 0xF1, 0x1E, 0x00, 0xC0, 0xE6, 0xF0, 0x10, 0x0B ; ........
  6374  DB 0x0C, 0x65, 0x02, 0x00, 0x3A, 0x9B, 0x41, 0x70 ; .e..:.Ap
  637C  DB 0xF0, 0xE6, 0xC0, 0x00, 0x5C, 0xD9, 0x82, 0x40 ; ....\..@
  6384  DB 0xBD, 0x00, 0x17, 0x6F, 0x4C, 0xB0, 0xB5, 0x02 ; ...oL...
  638C  DB 0xBD, 0x00, 0xE8, 0xF6, 0x32, 0x0D, 0xAD, 0xB5 ; ....2...
  6394  DB 0xB0, 0x4C, 0x2F, 0x57, 0x00, 0xBC, 0x43, 0xAD ; .L/W..C.
  639C  DB 0x0D, 0x32, 0xF4, 0xEA, 0x00, 0x3D, 0xC2, 0xDF ; .2...=..
  63A4  DB 0xA0, 0x5F, 0x5F, 0x3F, 0x3F, 0x7C, 0x03, 0xFB ; .__??|..
  63AC  DB 0x05, 0xFA, 0xFA, 0xFC, 0xFC, 0x3E, 0xC0, 0x73 ; .....>.s
  63B4  DB 0x33, 0x33, 0x53, 0x53, 0x53, 0xA0, 0xCF, 0xDE ; 33SSS...
  63BC  DB 0xDC, 0xDC, 0xDA, 0xDA, 0xDA, 0x05, 0xF3, 0xA0 ; ........
  63C4  DB 0x5B, 0x5F, 0x3F, 0x3F, 0x7C, 0x03, 0x0E, 0x05 ; [_??|...
  63CC  DB 0xDA, 0xFA, 0xFC, 0xFC, 0x3E, 0xC0, 0x70, 0x03 ; ....>.p.
  63D4  DB 0x73, 0x33, 0x33, 0x53, 0x53, 0x53, 0x80, 0xC0 ; s33SSS..
  63DC  DB 0xDE, 0xDC, 0xDC, 0xDA, 0xDA, 0xDA, 0x01, 0x80 ; ........
  63E4  DB 0x5F, 0x3F, 0x3F, 0x78, 0x06, 0x0C, 0x19, 0x01 ; _??x....
  63EC  DB 0xFA, 0xFC, 0xFC, 0x1E, 0x60, 0x30, 0x98, 0x19 ; ....`0..
  63F4  DB 0x0C, 0x03, 0x73, 0x33, 0x33, 0x58, 0x80, 0x98 ; ..s33X..
  63FC  DB 0x30, 0xC0, 0xDE, 0xDC, 0xDC, 0x3A, 0x01, 0x40 ; 0....:.@
  6404  DB 0x9F, 0x78, 0xC7, 0x1E, 0x38, 0x31, 0x31, 0x02 ; .x..811.
  640C  DB 0xF9, 0x1E, 0xE3, 0x78, 0x1C, 0x8C, 0x8C, 0x38 ; ...x...8
  6414  DB 0x1E, 0x07, 0x00, 0x03, 0x7B, 0x93, 0x60, 0x1C ; ....{.`.
  641C  DB 0x78, 0xE0, 0x00, 0xC0, 0xDE, 0xD9, 0x06, 0x28 ; x......(
  6424  DB 0x83, 0x08, 0x84, 0x84, 0x40, 0x11, 0x52, 0x0A ; ....@.R.
  642C  DB 0x64, 0x09, 0x20, 0x45, 0x02, 0x88, 0x40, 0x52 ; d. E..@R
  6434  DB 0x01, 0x40, 0x82, 0x92, 0xE0, 0x56, 0xD8, 0x48 ; .@...V.H
  643C  DB 0x80, 0x02, 0x45, 0x40, 0x0B, 0xE4, 0x15, 0x00 ; ..E@....
  6444  DB 0x18, 0x22, 0x40, 0x50, 0x02, 0x20, 0x0C, 0x13 ; ."@P. ..
  644C  DB 0x17, 0x13, 0x12, 0x10, 0x1F, 0x3F, 0x7F, 0x7F ; .....?..
  6454  DB 0x3F, 0x1F, 0x10, 0x10, 0x1B, 0x13, 0x17, 0x00 ; ?.......
  645C  DB 0x01, 0x03, 0x07, 0x07, 0x37, 0x07, 0x47, 0x17 ; ....7.G.
  6464  DB 0x47, 0x57, 0x07, 0x07, 0x07, 0x03, 0x01, 0x59 ; GW.....Y
  646C  DB 0x7F, 0x10, 0xFE, 0x10, 0x59, 0xFF, 0x88, 0xEE ; ....Y...
  6474  DB 0xEE, 0xFF, 0x88, 0xEE, 0xEE, 0xFF, 0x88, 0x88 ; ........
  647C  DB 0x88, 0xFF, 0x88, 0x88, 0x88, 0x59, 0x00, 0x08 ; .....Y..
  6484  DB 0x59, 0x41, 0x0E, 0x41, 0x4F, 0x0E, 0x41, 0x5F ; YA.AO.A_
  648C  DB 0x41, 0x2F, 0x2F, 0x2F, 0x2F, 0x2F, 0x2F, 0x2F ; A///////
  6494  DB 0x2F, 0xAB, 0x54, 0x54, 0x54, 0x54, 0x54, 0xAB ; /.TTTTT.
  649C  DB 0x00, 0x59, 0xFF, 0x07, 0x00, 0x11, 0x59, 0xE7 ; .Y....Y.
  64A4  DB 0x98, 0xCD, 0x66, 0x73, 0xB9, 0x9D, 0xAE, 0xE7 ; ..fs....
  64AC  DB 0x1D, 0xB9, 0x72, 0xE6, 0xCD, 0x99, 0x75, 0xC0 ; ..r...u.
  64B4  DB 0xE0, 0x70, 0x38, 0x1C, 0x0E, 0x07, 0x03, 0x03 ; .p8.....
  64BC  DB 0x07, 0x0E, 0x1C, 0x38, 0x70, 0xE0, 0x59, 0xC0 ; ...8p.Y.
  64C4  DB 0x01, 0x59, 0x59, 0x02, 0x03, 0x03, 0x7F, 0x01 ; .YY.....
  64CC  DB 0x3F, 0x06, 0x00, 0x01, 0x59, 0x59, 0x00, 0xFF ; ?...YY..
  64D4  DB 0x00, 0x08, 0xF0, 0x02, 0xE0, 0x06, 0xF0, 0x02 ; ........
  64DC  DB 0xE0, 0x06, 0xE0, 0x70, 0xE0, 0x30, 0x68, 0x10 ; ...p.0h.
  64E4  DB 0x68, 0x02, 0x69, 0x05, 0x68, 0x01, 0x60, 0x30 ; h.i.h.`0
  64EC  DB 0x70, 0x10, 0xC0, 0x10, 0xC2, 0x02, 0xC3, 0x04 ; p.......
  64F4  DB 0xC2, 0x1A, 0x45, 0x10, 0x60, 0x10, 0x69, 0x10 ; ..E.`.i.
  64FC  DB 0x70, 0x08, 0x60, 0x08, 0x90, 0x88, 0x70, 0xD0 ; p.`...p.
  6504  DB 0xC4, 0xA0, 0xC0, 0x18, 0x64, 0xA0, 0x60, 0x18 ; ....d.`.
  650C  DB 0xC6, 0xA0, 0x40, 0x18, 0x40, 0x58, 0x75, 0x10 ; ..@.@Xu.
  6514  DB 0x45, 0x08, 0x40, 0x10, 0x50, 0x38, 0x70, 0x08 ; E.@.P8p.
  651C  DB 0x70, 0x28, 0x75, 0x08, 0x74, 0x08, 0x40, 0x0B ; p(u.t.@.
  6524  DB 0xFF, 0xF0, 0x90, 0x80, 0x40, 0x40, 0x40, 0x40 ; ....@@@@
  652C  DB 0x90, 0xF0, 0x90, 0x80, 0x40, 0x40, 0x40, 0x60 ; ....@@@`
  6534  DB 0x90, 0xF0, 0x90, 0x80, 0x60, 0x40, 0xFF, 0x40 ; ....`@.@
  653C  DB 0x03, 0x50, 0x04, 0x70, 0x01, 0x40, 0x03, 0x50 ; .P.p.@.P
  6544  DB 0x04, 0x70, 0x01, 0x70, 0x01, 0x50, 0x03, 0x40 ; .p.p.P.@
  654C  DB 0x04, 0x70, 0x01, 0x50, 0x03, 0x40, 0x04, 0x40 ; .p.P.@.@
  6554  DB 0x02, 0x50, 0x03, 0x60, 0x03, 0x40, 0x02, 0x50 ; .P.`.@.P
  655C  DB 0x03, 0x60, 0x03, 0xFF, 0xFF, 0x02, 0x02, 0x04 ; .`......
  6564  DB 0x60, 0x01, 0x70, 0x02, 0x50, 0x02, 0x40, 0x03 ; `.p.P.@.
  656C  DB 0x40, 0x01, 0x50, 0x02, 0x60, 0x04, 0xF0, 0x01 ; @.P.`...
  6574  DB 0x40, 0x01, 0x50, 0x02, 0x60, 0x04, 0xD0, 0x01 ; @.P.`...
  657C  DB 0xF0, 0x01, 0x60, 0x03, 0x50, 0x02, 0x40, 0x02 ; ..`.P.@.
  6584  DB 0x60, 0x04, 0x50, 0x02, 0x40, 0x01, 0xFF, 0x40 ; `.P.@..@
  658C  DB 0xFF, 0xFF, 0x02, 0x02, 0x08, 0x40, 0x40, 0x60 ; .....@@`
  6594  DB 0x60, 0x80, 0x90, 0xD0, 0xF0, 0xFF, 0xFF, 0x02 ; `.......
  659C  DB 0x02, 0x08, 0xF0, 0xD0, 0x90, 0x80, 0x60, 0x60 ; ......``
  65A4  DB 0x40, 0x40, 0xFF, 0x40, 0x03, 0x50, 0x04, 0x70 ; @@.@.P.p
  65AC  DB 0x01, 0x40, 0x03, 0x50, 0x04, 0x70, 0x01, 0x50 ; .@.P.p.P
  65B4  DB 0x05, 0x40, 0x03, 0x50, 0x05, 0x40, 0x05, 0x50 ; .@.P.@.P
  65BC  DB 0x04, 0xC0, 0x02, 0x40, 0x02, 0x50, 0x04, 0xC0 ; ...@.P..
  65C4  DB 0x02, 0x70, 0x01, 0x50, 0x04, 0x40, 0x03, 0x70 ; .p.P.@.p
  65CC  DB 0x01, 0x50, 0x04, 0x40, 0x03, 0x40, 0x02, 0x50 ; .P.@.@.P
  65D4  DB 0x03, 0xC0, 0x03, 0x40, 0x02, 0x50, 0x03, 0xC0 ; ...@.P..
  65DC  DB 0x02, 0xFF, 0xC0, 0xFF, 0xFF, 0x02, 0x02, 0x08 ; ........
  65E4  DB 0xC0, 0xC0, 0x70, 0x50, 0x50, 0x50, 0x40, 0x40 ; ..pPPP@@
  65EC  DB 0xFF, 0xFF, 0x02, 0x02, 0x08, 0x40, 0x50, 0x50 ; .....@PP
  65F4  DB 0xC0, 0x20, 0x30, 0xF0, 0xF0, 0xFF, 0xFF, 0x02 ; . 0.....
  65FC  DB 0x02, 0x08, 0x30, 0x20, 0xC0, 0x60, 0x30, 0x50 ; ..0 .`0P
  6604  DB 0x40, 0x40, 0xFF, 0xFF, 0x02, 0x02, 0x08, 0x70 ; @@.....p
  660C  DB 0x40, 0x70, 0x40, 0x70, 0x40, 0x40, 0x40, 0xFF ; @p@p@@@.
  6614  DB 0x40, 0x18, 0x30, 0x05, 0xA0, 0x03, 0xA0, 0x03 ; @.0.....
  661C  DB 0x30, 0x05, 0xBA, 0x03, 0xB0, 0x05, 0xB0, 0x05 ; 0.......
  6624  DB 0xBA, 0x03, 0x50, 0x07, 0x70, 0x02, 0x50, 0x07 ; ..P.p.P.
  662C  DB 0x7E, 0x01, 0x5E, 0x0E, 0x7E, 0x01, 0x50, 0x08 ; ~.^.~.P.
  6634  DB 0x40, 0x10, 0x50, 0x01, 0x70, 0x01, 0x50, 0x04 ; @.P.p.P.
  663C  DB 0x70, 0x01, 0x50, 0x0A, 0xFF, 0x70, 0xF0, 0x70 ; p.P..p.p
  6644  DB 0x50, 0x40, 0x40, 0x40, 0x50, 0x70, 0xF0, 0x70 ; P@@@Pp.p
  664C  DB 0x50, 0xFF, 0x40, 0x12, 0xFF, 0x40, 0xFF, 0xFF ; P.@..@..
  6654  DB 0x02, 0x04, 0x08, 0x0C, 0x5C, 0x7C, 0xFC, 0xFC ; ....\|..
  665C  DB 0x7C, 0x5C, 0x0C, 0xFF, 0xF0, 0x01, 0xA0, 0x07 ; |\......
  6664  DB 0xF0, 0x01, 0xD0, 0x07, 0xF0, 0x01, 0xE0, 0x07 ; ........
  666C  DB 0xFF, 0xFF, 0x00, 0xFF, 0xFF, 0x01, 0xA5, 0x6E ; .......n
  6674  DB 0x6D, 0xEB, 0xE7, 0xCF, 0xCF, 0xAF, 0xAF, 0x76 ; m......v
  667C  DB 0xB6, 0xD7, 0xE7, 0xF3, 0xF3, 0xF5, 0xF5, 0x76 ; .......v
  6684  DB 0x76, 0x76, 0x06, 0x70, 0x76, 0x76, 0x00, 0xFF ; vv.pvv..
  668C  DB 0xA5, 0xCB, 0x07, 0xA5, 0xDB, 0xA5, 0xD9, 0x06 ; ........
  6694  DB 0xA5, 0xDB, 0x6C, 0xEE, 0xC6, 0xAA, 0x6C, 0xEE ; ..l...l.
  669C  DB 0xC6, 0xBA, 0x10, 0x04, 0x10, 0x04, 0x20, 0x10 ; ...... .
  66A4  DB 0x04, 0x10, 0x08, 0x00, 0x00, 0x10, 0x00, 0x00 ; ........
  66AC  DB 0x10, 0x00, 0xA5, 0x00, 0x10, 0xA5, 0x1C, 0x1C ; ........
  66B4  DB 0x1C, 0x08, 0x00, 0x1C, 0x1C, 0x00, 0x83, 0x49 ; .......I
  66BC  DB 0x36, 0x29, 0x59, 0x5B, 0xD8, 0x47, 0xC7, 0xEF ; 6)Y[.G..
  66C4  DB 0x08, 0xC3, 0xEF, 0xEE, 0x68, 0x23, 0x81, 0xA2 ; ....h#..
  66CC  DB 0x7C, 0x34, 0xA6, 0x1E, 0xC7, 0xF5, 0x71, 0xF7 ; |4....q.
  66D4  DB 0xE7, 0x80, 0x0F, 0xDF, 0xD8, 0xC2, 0xCF, 0xEE ; ........
  66DC  DB 0xEC, 0x41, 0x25, 0xAE, 0xEF, 0x67, 0xF3, 0x0F ; .A%..g..
  66E4  DB 0xE7, 0xF3, 0xF9, 0x1D, 0xCF, 0xEF, 0x58, 0x7B ; ......X{
  66EC  DB 0x1B, 0x20, 0x18, 0x2B, 0x43, 0x80, 0x6B, 0xE9 ; . .+C.k.
  66F4  DB 0xEC, 0x8B, 0x2B, 0xE3, 0xEA, 0xEE, 0xD3, 0x98 ; ..+.....
  66FC  DB 0x3C, 0x8C, 0xA0, 0x34, 0xE2, 0x81, 0xA5, 0xA5 ; <..4....
  6704  DB 0x00, 0xFF, 0xFF, 0x01, 0xA5, 0x00, 0xA5, 0x7F ; ........
  670C  DB 0x07, 0x00, 0x01, 0xFF, 0x07, 0xFF, 0x01, 0xFE ; ........
  6714  DB 0x07, 0x7F, 0x08, 0xFF, 0x08, 0xFE, 0x08, 0x7F ; ........
  671C  DB 0x08, 0xFF, 0x08, 0xFE, 0x07, 0x00, 0x09, 0xA5 ; ........
  6724  DB 0x00, 0x7E, 0x00, 0x7E, 0x7E, 0x00, 0x7E, 0x00 ; .~.~~.~.
  672C  DB 0xFF, 0x81, 0xFF, 0x81, 0xFF, 0x81, 0xFF, 0x81 ; ........
  6734  DB 0x00, 0xA5, 0x7F, 0x17, 0x7F, 0x08, 0xA5, 0xFF ; ........
  673C  DB 0x00, 0xFF, 0x00, 0xFF, 0x00, 0xFF, 0x00, 0xA5 ; ........
  6744  DB 0xFE, 0x08, 0xA5, 0x7F, 0xA5, 0xFF, 0x0F, 0xA5 ; ........
  674C  DB 0x7F, 0xBF, 0xDF, 0xEF, 0xF7, 0xFB, 0xFD, 0xFE ; ........
  6754  DB 0x7B, 0xBD, 0xDD, 0xED, 0xED, 0xF6, 0xF6, 0xFA ; {.......
  675C  DB 0x6B, 0x6D, 0xB5, 0xB5, 0xD5, 0xDA, 0xDA, 0xEA ; km......
  6764  DB 0x66, 0x26, 0x60, 0x04, 0x66, 0x21, 0x06, 0x24 ; f&`.f!.$
  676C  DB 0x00, 0x00, 0x00, 0x7E, 0x00, 0x7E, 0x00, 0x24 ; ...~.~.$
  6774  DB 0xA5, 0xA5, 0x02, 0x02, 0x08, 0xFF, 0x7F, 0x3F ; .......?
  677C  DB 0x1F, 0x0F, 0x0F, 0x0F, 0x07, 0x77, 0x77, 0xBB ; .....ww.
  6784  DB 0xBB, 0xDD, 0xDD, 0xEE, 0xEE, 0xDB, 0xA5, 0xDB ; ........
  678C  DB 0x07, 0xA5, 0xEE, 0xEE, 0xDD, 0xDD, 0xBB, 0xBB ; ........
  6794  DB 0x77, 0x77, 0xFE, 0xFD, 0xFB, 0x07, 0xF7, 0xEF ; ww......
  679C  DB 0xEF, 0x1F, 0xD6, 0xB6, 0xAD, 0xAD, 0xAB, 0x5B ; .......[
  67A4  DB 0x5B, 0x57, 0xDE, 0xBD, 0xBB, 0xB7, 0xB7, 0x6F ; [W.....o
  67AC  DB 0x6F, 0x5F, 0xFE, 0xFD, 0xFB, 0xF7, 0xEF, 0xDF ; o_......
  67B4  DB 0xBF, 0x7F, 0xA5, 0x00, 0x18, 0xA5, 0x54, 0x01 ; ......T.
  67BC  DB 0x00, 0x01, 0x00, 0x01, 0x00, 0x01, 0x22, 0x00 ; ......".
  67C4  DB 0x24, 0x00, 0x24, 0x00, 0x02, 0x20, 0x00, 0x20 ; $.$.. . 
  67CC  DB 0x00, 0x10, 0x00, 0x04, 0x00, 0x02, 0x00, 0x02 ; ........
  67D4  DB 0x00, 0x08, 0x00, 0x00, 0x20, 0x00, 0x00, 0xFF ; .... ...
  67DC  DB 0xFF, 0xFF, 0xFF, 0xFF, 0xFF, 0x00, 0x81, 0x5A ; .......Z
  67E4  DB 0xB5, 0xB5, 0xB5, 0xB5, 0x5A, 0x81, 0x00, 0xAA ; ....Z...
  67EC  DB 0xD5, 0xAA, 0x00, 0xAA, 0xD5, 0xAA, 0x00, 0xFF ; ........
  67F4  DB 0xFF, 0xFF, 0x00, 0xFF, 0xFF, 0xFF, 0x1C, 0x42 ; .......B
  67FC  DB 0x1C, 0x5E, 0x5E, 0x46, 0x5A, 0x1C, 0xA5, 0x1D ; .^^FZ...
  6804  DB 0x08, 0xA5, 0xC0, 0x60, 0x30, 0x18, 0x0C, 0x06 ; ...`0...
  680C  DB 0x03, 0x01, 0x01, 0x03, 0x06, 0x0C, 0x18, 0x30 ; .......0
  6814  DB 0x60, 0xC0, 0x82, 0x4C, 0x3E, 0x1A, 0x1D, 0x31 ; `..L>..1
  681C  DB 0x0E, 0x6F, 0x00, 0x00, 0x47, 0xE3, 0x8F, 0xEE ; .o..G...
  6824  DB 0x6C, 0xE7, 0x01, 0x8A, 0xCC, 0xEC, 0xE8, 0x38 ; l......8
  682C  DB 0xC6, 0xF0, 0x1F, 0x1C, 0x03, 0x0F, 0x1E, 0x0D ; ........
  6834  DB 0x02, 0x0F, 0xD7, 0xF6, 0xF0, 0xE3, 0x6F, 0x8E ; ......o.
  683C  DB 0x61, 0x77, 0xF0, 0x78, 0x80, 0xE0, 0xF0, 0x10 ; aw.x....
  6844  DB 0x78, 0xFE, 0x7C, 0x0B, 0x00, 0x3E, 0x1E, 0x2C ; x.|..>.,
  684C  DB 0x41, 0x80, 0x72, 0xE9, 0x0F, 0xE7, 0xF7, 0xC3 ; A.r.....
  6854  DB 0x00, 0x00, 0x7C, 0x98, 0xE0, 0xD8, 0xF8, 0x84 ; ..|.....
  685C  DB 0x82, 0x01, 0x81, 0x41, 0x30, 0x18, 0x0E, 0x07 ; ...A0...
  6864  DB 0x0F, 0x73, 0x01, 0x02, 0x82, 0xE6, 0x6E, 0xCE ; .s....n.
  686C  DB 0xEC, 0x6D, 0x01, 0x02, 0x0C, 0x78, 0x30, 0x70 ; .m...x0p
  6874  DB 0xC0, 0x40, 0xD9, 0x0C, 0x07, 0x03, 0x01, 0x03 ; .@......
  687C  DB 0x08, 0x73, 0xCF, 0x2A, 0xF3, 0xE7, 0x67, 0x27 ; .s.*..g'
  6884  DB 0xF6, 0xEC, 0xB0, 0x76, 0xB8, 0x00, 0xC0, 0xE0 ; ...v....
  688C  DB 0x60, 0xF4, 0x03, 0x07, 0x1F, 0x0C, 0x19, 0x20 ; `...... 
  6894  DB 0x40, 0x80, 0xEB, 0x8E, 0x67, 0xC3, 0x82, 0x82 ; @...g...
  689C  DB 0x82, 0x81, 0x20, 0xD0, 0x78, 0x38, 0x18, 0x0C ; .. .x8..
  68A4  DB 0x02, 0x01, 0xA5, 0xA5, 0x00, 0xFF, 0x40, 0x08 ; ......@.
  68AC  DB 0x50, 0x09, 0x40, 0x07, 0x50, 0x01, 0x45, 0x07 ; P.@.P.E.
  68B4  DB 0x57, 0x01, 0x47, 0x0E, 0x57, 0x01, 0x40, 0x18 ; W.G.W.@.
  68BC  DB 0x70, 0x10, 0x90, 0x09, 0x80, 0x01, 0x90, 0x01 ; p.......
  68C4  DB 0x80, 0x04, 0x90, 0x01, 0x90, 0x10, 0x80, 0x02 ; ........
  68CC  DB 0x90, 0x03, 0x80, 0x03, 0x91, 0x10, 0x80, 0x01 ; ........
  68D4  DB 0x90, 0x03, 0x80, 0x04, 0x90, 0x08, 0xFF, 0xFF ; ........
  68DC  DB 0x00, 0xFF, 0xC0, 0x10, 0x03, 0x01, 0xC3, 0x07 ; ........
  68E4  DB 0xC0, 0x08, 0x20, 0x08, 0xC3, 0x08, 0xC0, 0x07 ; .. .....
  68EC  DB 0x30, 0x01, 0xC0, 0x07, 0x30, 0x01, 0xC3, 0x08 ; 0...0...
  68F4  DB 0x90, 0x10, 0xC0, 0x08, 0x40, 0x07, 0xE0, 0x11 ; ....@...
  68FC  DB 0x20, 0x08, 0xC0, 0x08, 0x23, 0x08, 0xC0, 0x10 ;  ...#...
  6904  DB 0x80, 0x18, 0x60, 0x10, 0x68, 0x0B, 0x98, 0x01 ; ..`.h...
  690C  DB 0x68, 0x02, 0x98, 0x01, 0x68, 0x01, 0xFF, 0xFF ; h...h...
  6914  DB 0x02, 0x03, 0x04, 0x60, 0x04, 0x90, 0x01, 0x60 ; ...`...`
  691C  DB 0x02, 0x90, 0x01, 0x60, 0x03, 0x69, 0x01, 0x60 ; ...`.i.`
  6924  DB 0x03, 0x69, 0x01, 0x60, 0x30, 0x40, 0x1F, 0xFF ; .i.`0@..
  692C  DB 0x40, 0xFF, 0xFF, 0x02, 0x02, 0x08, 0x30, 0x30 ; @.....00
  6934  DB 0xF0, 0xE0, 0x30, 0x20, 0xC0, 0xC0, 0xFF, 0xFF ; ..0 ....
  693C  DB 0x02, 0x02, 0x08, 0x50, 0x70, 0xF0, 0x50, 0x70 ; ...Pp.Pp
  6944  DB 0x70, 0xF0, 0x50, 0x30, 0x20, 0x30, 0xFF, 0x20 ; p.P0 0. 
  694C  DB 0x05, 0x20, 0x08, 0xFF, 0xC0, 0x20, 0x30, 0xF0 ; . ... 0.
  6954  DB 0xF0, 0x30, 0x20, 0xC0, 0x40, 0x50, 0x70, 0xF0 ; .0 .@Pp.
  695C  DB 0xF0, 0x70, 0x50, 0x40, 0xFF, 0x90, 0x08, 0x80 ; .pP@....
  6964  DB 0x08, 0x90, 0x10, 0x80, 0x08, 0x90, 0x10, 0x80 ; ........
  696C  DB 0x08, 0x90, 0x08, 0x80, 0x48, 0xC0, 0x10, 0xFF ; ....H...
  6974  DB 0xFF, 0x00, 0xFF, 0xFF, 0x01, 0xAA, 0xAA, 0x00 ; ........
  697C  DB 0x23, 0xAA, 0x0A, 0x15, 0x2B, 0xAA, 0x57, 0x05 ; #...+.W.
  6984  DB 0xAA, 0x2B, 0x15, 0x0A, 0xAA, 0x00, 0x05, 0xAA ; .+......
  698C  DB 0xE0, 0x10, 0xC8, 0xE4, 0xE4, 0xE4, 0xE4, 0xE4 ; ........
  6994  DB 0xC8, 0x10, 0xE0, 0x00, 0x00, 0x00, 0x03, 0x07 ; ........
  699C  DB 0x0F, 0x0F, 0x1F, 0x0F, 0x0F, 0x17, 0x0A, 0x15 ; ........
  69A4  DB 0x02, 0x15, 0x02, 0x00, 0x04, 0x80, 0xE0, 0xF0 ; ........
  69AC  DB 0xF8, 0xF8, 0xFC, 0xF8, 0xF8, 0xF4, 0xA8, 0xD4 ; ........
  69B4  DB 0xA0, 0xD4, 0xA0, 0x00, 0x88, 0x00, 0x00, 0x05 ; ........
  69BC  DB 0x0A, 0x15, 0x0B, 0x17, 0x77, 0x17, 0x0B, 0x15 ; ....w...
  69C4  DB 0x0A, 0x05, 0x00, 0x00, 0x00, 0x80, 0x80, 0xD0 ; ........
  69CC  DB 0x28, 0xD4, 0xE8, 0xF4, 0xF7, 0xF4, 0xE8, 0xD4 ; (.......
  69D4  DB 0x28, 0xD0, 0x80, 0x80, 0x00, 0x02, 0x01, 0x0A ; (.......
  69DC  DB 0x05, 0x2F, 0x57, 0x2F, 0x7F, 0x2F, 0x57, 0x0F ; ./W/./W.
  69E4  DB 0x17, 0x02, 0x05, 0x02, 0x00, 0x20, 0x40, 0xA8 ; ..... @.
  69EC  DB 0xD0, 0xFA, 0xF5, 0xFA, 0xFF, 0xFA, 0xF5, 0xF8 ; ........
  69F4  DB 0xF4, 0xA0, 0x50, 0x20, 0x00, 0x00, 0x00, 0x01 ; ..P ....
  69FC  DB 0x01, 0x02, 0x05, 0x0B, 0x37, 0x0B, 0x05, 0x02 ; ....7...
  6A04  DB 0x01, 0x01, 0xAA, 0x00, 0x07, 0xAA, 0x80, 0x40 ; .......@
  6A0C  DB 0xA0, 0xD8, 0xA0, 0x40, 0x80, 0xAA, 0x00, 0x0A ; ...@....
  6A14  DB 0xAA, 0x1F, 0x2F, 0xD7, 0x2F, 0x1F, 0xAA, 0x00 ; .././...
  6A1C  DB 0x0B, 0xAA, 0xF0, 0xE8, 0xD6, 0xE8, 0xF0, 0xAA ; ........
  6A24  DB 0x00, 0x0C, 0xAA, 0x01, 0x03, 0x02, 0x03, 0x01 ; ........
  6A2C  DB 0xAA, 0x00, 0x0B, 0xAA, 0x80, 0xC0, 0x40, 0xC0 ; ......@.
  6A34  DB 0x80, 0xAA, 0x00, 0x07, 0xAA, 0x01, 0x07, 0x0F ; ........
  6A3C  DB 0x1F, 0x1F, 0x3F, 0x3F, 0x1F, 0x1F, 0x0F, 0x07 ; ..??....
  6A44  DB 0x01, 0x00, 0x00, 0x00, 0x00, 0x80, 0xE0, 0xF0 ; ........
  6A4C  DB 0xF8, 0xF8, 0xFC, 0xFC, 0xF8, 0xF8, 0xF0, 0xE0 ; ........
  6A54  DB 0x80, 0x00, 0x00, 0x03, 0x0F, 0x3F, 0x3F, 0x7F ; .....??.
  6A5C  DB 0x7F, 0xFF, 0xFF, 0xFF, 0xFF, 0x7F, 0x7F, 0x3F ; .......?
  6A64  DB 0x3F, 0x0F, 0x03, 0xC0, 0xF0, 0xFC, 0xFC, 0xFE ; ?.......
  6A6C  DB 0xFE, 0xFF, 0xFF, 0xFF, 0xFF, 0xFE, 0xFE, 0xFC ; ........
  6A74  DB 0xFC, 0xF0, 0xC0, 0x01, 0x03, 0x02, 0x01, 0x03 ; ........
  6A7C  DB 0x02, 0x01, 0x03, 0x02, 0x01, 0x01, 0xAA, 0x00 ; ........
  6A84  DB 0x06, 0x80, 0x03, 0x00, 0x01, 0x80, 0x02, 0x00 ; ........
  6A8C  DB 0x01, 0x80, 0x02, 0x00, 0x06, 0xAA, 0x08, 0x1C ; ........
  6A94  DB 0x14, 0x0C, 0x18, 0x14, 0x0C, 0x18, 0x14, 0x0C ; ........
  6A9C  DB 0x18, 0x14, 0x08, 0x00, 0x00, 0x00, 0x10, 0x38 ; .......8
  6AA4  DB 0x28, 0x18, 0x30, 0x28, 0x18, 0x30, 0x28, 0x18 ; (.0(.0(.
  6AAC  DB 0x30, 0x28, 0x10, 0x00, 0x00, 0x00, 0x01, 0x03 ; 0(......
  6AB4  DB 0x42, 0xE1, 0xA3, 0x62, 0xC1, 0xA3, 0x62, 0xC1 ; B..b..b.
  6ABC  DB 0xA3, 0x62, 0xC1, 0xA1, 0x60, 0x40, 0x00, 0x80 ; .b..`@..
  6AC4  DB 0x84, 0x8E, 0x0A, 0x86, 0x8C, 0x0A, 0x86, 0x8C ; ........
  6ACC  DB 0x0A, 0x86, 0x8C, 0x0A, 0x06, 0x04, 0x00, 0x80 ; ........
  6AD4  DB 0x40, 0x29, 0x1B, 0x0B, 0x06, 0x1D, 0x3B, 0x1D ; @)....;.
  6ADC  DB 0x06, 0x0B, 0x13, 0x21, 0x40, 0x00, 0x00, 0x02 ; ...!@...
  6AE4  DB 0x04, 0x28, 0xB0, 0xA0, 0xC0, 0x70, 0xB8, 0x70 ; .(...p.p
  6AEC  DB 0xC0, 0xA0, 0x90, 0x08, 0x04, 0x00, 0xAA, 0x01 ; ........
  6AF4  DB 0x05, 0xAA, 0x03, 0x43, 0x43, 0x47, 0x4E, 0x5E ; ...CCGN^
  6AFC  DB 0x7C, 0x7C, 0x46, 0x5C, 0x0D, 0xAA, 0x40, 0x05 ; ||F\..@.
  6B04  DB 0xAA, 0x60, 0x61, 0x61, 0x71, 0x39, 0xBD, 0x9F ; .`aaq9..
  6B0C  DB 0x9F, 0x31, 0x9D, 0xD8, 0x02, 0x02, 0x02, 0x04 ; .1......
  6B14  DB 0x04, 0x04, 0x88, 0x91, 0xA1, 0x83, 0x83, 0xB9 ; ........
  6B1C  DB 0xA3, 0x52, 0x0F, 0x01, 0xAA, 0x80, 0x05, 0xAA ; .R......
  6B24  DB 0x82, 0x82, 0xC2, 0x42, 0x60, 0x60, 0xCE, 0x62 ; ...B``.b
  6B2C  DB 0x25, 0xF8, 0xC0, 0x00, 0x08, 0x78, 0x72, 0x33 ; %....xr3
  6B34  DB 0x13, 0x0B, 0x06, 0x06, 0x03, 0xAA, 0x02, 0x05 ; ........
  6B3C  DB 0xAA, 0x00, 0x00, 0x10, 0x1E, 0x5E, 0xDC, 0xD8 ; .....^..
  6B44  DB 0xD0, 0x60, 0x60, 0xAA, 0x40, 0x06, 0xAA, 0x00 ; .``.@...
  6B4C  DB 0x08, 0x75, 0x86, 0x8D, 0x4C, 0x24, 0x14, 0x09 ; .u..L$..
  6B54  DB 0x09, 0x0C, 0x04, 0x04, 0x00, 0x00, 0x00, 0x00 ; ........
  6B5C  DB 0x10, 0xAE, 0x60, 0xA0, 0xAA, 0x20, 0x03, 0x80 ; ..`.. ..
  6B64  DB 0x05, 0x00, 0x05, 0xAA, 0x31, 0x32, 0x17, 0x07 ; ....12..
  6B6C  DB 0x0F, 0x0F, 0x0F, 0x06, 0x08, 0x0C, 0x0C, 0x04 ; ........
  6B74  DB 0x06, 0x03, 0x01, 0x00, 0xC6, 0x26, 0x74, 0x70 ; .....&tp
  6B7C  DB 0x78, 0x78, 0x78, 0x20, 0x88, 0x98, 0x98, 0x10 ; xxx ....
  6B84  DB 0x30, 0x60, 0x40, 0x00, 0x61, 0x64, 0x2C, 0x0C ; 0`@.ad,.
  6B8C  DB 0x1C, 0x18, 0x38, 0x30, 0x00, 0x00, 0x00, 0x00 ; ..80....
  6B94  DB 0x40, 0x3F, 0x1D, 0x00, 0xC3, 0x13, 0x1A, 0x18 ; @?......
  6B9C  DB 0x1C, 0x0C, 0x0E, 0x06, 0x80, 0x80, 0x80, 0x00 ; ........
  6BA4  DB 0x83, 0x7E, 0x5C, 0x31, 0x42, 0x4D, 0x28, 0x08 ; .~\1BM(.
  6BAC  DB 0x10, 0x10, 0x10, 0x19, 0x17, 0x13, 0x13, 0x1B ; ........
  6BB4  DB 0x09, 0x04, 0x02, 0xC6, 0x28, 0xD8, 0x88, 0x88 ; ....(...
  6BBC  DB 0x80, 0x80, 0x80, 0xD8, 0x70, 0x60, 0x60, 0xE0 ; ....p``.
  6BC4  DB 0xC0, 0x80, 0x80, 0x61, 0x86, 0x8B, 0x53, 0x33 ; ...a..S3
  6BCC  DB 0x22, 0x67, 0x45, 0x4F, 0x07, 0x07, 0x03, 0x61 ; "gEO...a
  6BD4  DB 0x9F, 0x40, 0x22, 0xC3, 0x34, 0xEC, 0xE4, 0x64 ; .@".4..d
  6BDC  DB 0xA0, 0x70, 0xD0, 0xF8, 0x70, 0x70, 0x60, 0xC3 ; .p..pp`.
  6BE4  DB 0x7C, 0x80, 0xA0, 0x00, 0x00, 0x02, 0x05, 0x06 ; |.......
  6BEC  DB 0x0B, 0x05, 0x0B, 0x17, 0x1F, 0x0B, 0x17, 0x0F ; ........
  6BF4  DB 0x07, 0x03, 0x00, 0x00, 0x00, 0x00, 0x40, 0xA0 ; ......@.
  6BFC  DB 0xE0, 0xF0, 0xF0, 0xF0, 0xF0, 0xF0, 0xE0, 0xC0 ; ........
  6C04  DB 0xC0, 0x80, 0x00, 0x07, 0x0F, 0x0D, 0x1A, 0x39 ; .......9
  6C0C  DB 0x34, 0x3A, 0x34, 0x28, 0x20, 0x34, 0x28, 0x10 ; 4:4( 4(.
  6C14  DB 0x08, 0x04, 0x00, 0x80, 0xC0, 0xE0, 0xA0, 0x50 ; .......P
  6C1C  DB 0x10, 0xAA, 0x00, 0x0C, 0xAA, 0x03, 0x04, 0x0E ; ........
  6C24  DB 0x1C, 0x08, 0x21, 0x21, 0x08, 0x1C, 0x1E, 0x0C ; ..!!....
  6C2C  DB 0x03, 0x00, 0x00, 0x00, 0x00, 0xC0, 0x30, 0x78 ; ......0x
  6C34  DB 0x38, 0x14, 0x84, 0x84, 0x14, 0x38, 0x78, 0x30 ; 8....8x0
  6C3C  DB 0xC0, 0x00, 0x00, 0x00, 0x00, 0x04, 0x0B, 0x11 ; ........
  6C44  DB 0x23, 0x37, 0x5E, 0x5E, 0x37, 0x23, 0x21, 0x13 ; #7^^7#!.
  6C4C  DB 0x0C, 0xAA, 0x00, 0x05, 0xAA, 0xC0, 0x80, 0xC0 ; ........
  6C54  DB 0xE8, 0x78, 0x78, 0xE8, 0xC0, 0x80, 0xC0, 0x00 ; .xx.....
  6C5C  DB 0x00, 0x00, 0x50, 0x50, 0xF8, 0x72, 0x7B, 0x7E ; ..PP.r{~
  6C64  DB 0x7D, 0x77, 0x73, 0x73, 0x53, 0x23, 0x23, 0x02 ; }wssS##.
  6C6C  DB 0x01, 0x01, 0x14, 0x14, 0x3E, 0x9C, 0xAC, 0xEC ; ....>...
  6C74  DB 0x7C, 0xDC, 0x9C, 0x9C, 0x94, 0x88, 0x88, 0x80 ; |.......
  6C7C  DB 0x00, 0x00, 0x00, 0x28, 0x38, 0x6C, 0x16, 0x3E ; ...(8l.>
  6C84  DB 0x3A, 0x39, 0x39, 0x38, 0x38, 0x28, 0x10, 0x10 ; :9988(..
  6C8C  DB 0x00, 0x00, 0x00, 0x14, 0x1C, 0x36, 0x68, 0x7C ; .....6h|
  6C94  DB 0x5C, 0x9C, 0x9C, 0x1C, 0x1C, 0x14, 0x08, 0x08 ; \.......
  6C9C  DB 0xAA, 0x00, 0x05, 0xAA, 0x02, 0x03, 0x06, 0x01 ; ........
  6CA4  DB 0xAA, 0x03, 0x06, 0xAA, 0x02, 0x01, 0x01, 0x00 ; ........
  6CAC  DB 0x00, 0x00, 0x80, 0x80, 0xC0, 0x00, 0xAA, 0x80 ; ........
  6CB4  DB 0x07, 0x00, 0x03, 0xAA, 0x2C, 0x64, 0xE4, 0x65 ; ....,d.e
  6CBC  DB 0x20, 0x15, 0x06, 0x16, 0x16, 0x16, 0x16, 0x02 ;  .......
  6CC4  DB 0x06, 0x02, 0x02, 0x00, 0x14, 0xAE, 0xAF, 0xAE ; ........
  6CCC  DB 0x0C, 0xA8, 0xAA, 0x64, 0x05, 0xAA, 0x40, 0x60 ; ...d..@`
  6CD4  DB 0x40, 0x40, 0x00, 0x2C, 0x64, 0xE4, 0x65, 0x20 ; @@.,d.e 
  6CDC  DB 0x10, 0x18, 0x1B, 0x58, 0x98, 0x18, 0x08, 0x18 ; ...X....
  6CE4  DB 0x08, 0x08, 0x00, 0x14, 0xAE, 0xAF, 0xAE, 0x04 ; ........
  6CEC  DB 0x18, 0x18, 0xD8, 0x1A, 0x19, 0x18, 0x10, 0x18 ; ........
  6CF4  DB 0x10, 0x10, 0x3E, 0x53, 0x9B, 0x1B, 0x9A, 0x5F ; ..>S..._
  6CFC  DB 0x2A, 0x39, 0x29, 0x29, 0x29, 0x29, 0x0D, 0x09 ; *9))))..
  6D04  DB 0x05, 0x05, 0x7C, 0xEA, 0x51, 0x50, 0x51, 0xF2 ; ..|.QPQ.
  6D0C  DB 0x54, 0x98, 0x98, 0x98, 0x98, 0x98, 0xB0, 0x90 ; T.......
  6D14  DB 0xA0, 0xA0, 0x3E, 0x53, 0x9B, 0x1B, 0x9A, 0x5F ; ..>S..._
  6D1C  DB 0x2F, 0x27, 0x64, 0xA7, 0x64, 0xA4, 0x34, 0x24 ; /'d.d.4$
  6D24  DB 0x14, 0x14, 0x7C, 0xEA, 0x51, 0x50, 0x51, 0xFA ; ..|.QPQ.
  6D2C  DB 0xE4, 0xE4, 0x26, 0xE5, 0x26, 0x25, 0x2C, 0x24 ; ..&.&%,$
  6D34  DB 0x28, 0x28, 0x00, 0x00, 0x00, 0x00, 0x01, 0x00 ; ((......
  6D3C  DB 0x40, 0x7C, 0x7C, 0xFC, 0x74, 0x34, 0x1C, 0x0C ; @||.t4..
  6D44  DB 0x04, 0x02, 0x00, 0x80, 0x80, 0x00, 0xC0, 0x01 ; ........
  6D4C  DB 0x03, 0x3F, 0xBF, 0xBF, 0xAE, 0xAC, 0x18, 0xB0 ; .?......
  6D54  DB 0x20, 0x40, 0xAA, 0x00, 0x06, 0xAA, 0x3C, 0x7C ;  @....<|
  6D5C  DB 0xF4, 0xF4, 0x7C, 0x0C, 0xAA, 0x00, 0x07, 0xAA ; ..|.....
  6D64  DB 0x80, 0x00, 0x00, 0xBC, 0xBF, 0xAF, 0xAF, 0x3E ; .......>
  6D6C  DB 0x30, 0xAA, 0x00, 0x0B, 0xAA, 0x3C, 0x74, 0xFC ; 0....<t.
  6D74  DB 0x14, 0xAA, 0x00, 0x0B, 0xAA, 0x80, 0xBC, 0xAF ; ........
  6D7C  DB 0x3F, 0x28, 0xAA, 0x00, 0x0A, 0xAA, 0x0C, 0x3C ; ?(.....<
  6D84  DB 0x79, 0x71, 0x74, 0xEC, 0x22, 0xAA, 0x00, 0x09 ; yqt."...
  6D8C  DB 0xAA, 0xB0, 0x3C, 0x9E, 0x8F, 0x2F, 0x37, 0xC4 ; ..<../7.
  6D94  DB 0x80, 0x80, 0xAA, 0x00, 0x05, 0xAA, 0x0C, 0x1C ; ........
  6D9C  DB 0x39, 0x75, 0x6C, 0x40, 0x60, 0x40, 0x03, 0x80 ; 9ul@`@..
  6DA4  DB 0xAA, 0x00, 0x05, 0xAA, 0xA0, 0xB0, 0x38, 0x1C ; ......8.
  6DAC  DB 0x2E, 0x37, 0x03, 0x07, 0x03, 0xC1, 0x01, 0x80 ; .7......
  6DB4  DB 0x80, 0x80, 0x01, 0x01, 0x01, 0x81, 0x82, 0xC3 ; ........
  6DBC  DB 0xBF, 0x83, 0x03, 0x03, 0x0B, 0x0B, 0x03, 0x03 ; ........
  6DC4  DB 0x00, 0x00, 0x00, 0x00, 0x80, 0x00, 0x00, 0xC1 ; ........
  6DCC  DB 0xFA, 0xC4, 0xC0, 0x40, 0x50, 0xD0, 0x40, 0xC0 ; ...@P.@.
  6DD4  DB 0x00, 0x00, 0x00, 0x00, 0x01, 0x01, 0x03, 0x3F ; .......?
  6DDC  DB 0xC3, 0x83, 0x0B, 0x0B, 0x03, 0x02, 0xAA, 0x00 ; ........
  6DE4  DB 0x06, 0xAA, 0x80, 0x00, 0xC0, 0xFC, 0x43, 0x40 ; ......C@
  6DEC  DB 0x50, 0x50, 0xC0, 0x40, 0xAA, 0x00, 0x0A, 0xAA ; PP.@....
  6DF4  DB 0x3E, 0xC3, 0x8B, 0x03, 0x0A, 0xAA, 0x00, 0x0B ; >.......
  6DFC  DB 0xAA, 0x7C, 0x43, 0x50, 0xC0, 0x50, 0xAA, 0x00 ; .|CP.P..
  6E04  DB 0x09, 0xAA, 0x0E, 0x33, 0x43, 0x86, 0x8E, 0x8B ; ...3C...
  6E0C  DB 0x13, 0x1D, 0x01, 0x01, 0xAA, 0x00, 0x06, 0xAA ; ........
  6E14  DB 0x70, 0x4C, 0xC2, 0x61, 0x70, 0xD0, 0xC8, 0x38 ; pL.ap..8
  6E1C  DB 0x00, 0x00, 0x00, 0x00, 0x02, 0x07, 0x0A, 0x12 ; ........
  6E24  DB 0x23, 0x47, 0x8B, 0x93, 0xBF, 0x9F, 0x83, 0x80 ; #G......
  6E2C  DB 0x01, 0x01, 0x01, 0x01, 0x40, 0xE0, 0x50, 0x48 ; ....@.PH
  6E34  DB 0xC4, 0xE2, 0xD1, 0xC8, 0xFC, 0xF8, 0xC0, 0x00 ; ........
  6E3C  DB 0x80, 0x00, 0x00, 0x00, 0x00, 0x01, 0x00, 0x41 ; .......A
  6E44  DB 0x70, 0x79, 0x79, 0x40, 0x41, 0x41, 0x00, 0x00 ; pyy@AA..
  6E4C  DB 0x00, 0x01, 0x00, 0x00, 0x00, 0xC0, 0x00, 0xC1 ; ........
  6E54  DB 0x31, 0x79, 0xFD, 0x01, 0xC1, 0xC1, 0x40, 0xC0 ; 1y....@.
  6E5C  DB 0xC0, 0xC0, 0x80, 0x80, 0x00, 0x01, 0x10, 0x11 ; ........
  6E64  DB 0x10, 0x19, 0x15, 0x10, 0x11, 0x01, 0x00, 0x00 ; ........
  6E6C  DB 0x00, 0x01, 0x00, 0x00, 0x00, 0xC0, 0x00, 0xC0 ; ........
  6E74  DB 0x04, 0x64, 0xE4, 0x14, 0xC4, 0xC4, 0x40, 0xC0 ; .d....@.
  6E7C  DB 0xC0, 0xC0, 0x80, 0x80, 0xAA, 0x00, 0x0D, 0xAA ; ........
  6E84  DB 0x01, 0x00, 0x00, 0x00, 0xC0, 0x80, 0xC0, 0x80 ; ........
  6E8C  DB 0xC0, 0xC0, 0x80, 0x80, 0x40, 0x40, 0xC0, 0xC0 ; ....@@..
  6E94  DB 0xC0, 0x80, 0x80, 0x00, 0x01, 0x00, 0x01, 0x10 ; ........
  6E9C  DB 0x11, 0x11, 0x18, 0x19, 0x11, 0x00, 0x00, 0x00 ; ........
  6EA4  DB 0x01, 0x00, 0x00, 0x00, 0xC0, 0x04, 0xC4, 0x04 ; ........
  6EAC  DB 0x64, 0xE4, 0x04, 0xC4, 0xC0, 0x40, 0xC0, 0xC0 ; d....@..
  6EB4  DB 0xC0, 0x80, 0x80, 0x03, 0x02, 0xC3, 0x82, 0x8F ; ........
  6EBC  DB 0x86, 0x86, 0x83, 0x82, 0x82, 0x03, 0x03, 0x03 ; ........
  6EC4  DB 0x02, 0x01, 0x01, 0xC0, 0x00, 0xC3, 0x02, 0xCE ; ........
  6ECC  DB 0x86, 0x02, 0xC2, 0x02, 0x02, 0x80, 0xAA, 0x00 ; ........
  6ED4  DB 0x05, 0xAA, 0x03, 0x32, 0x23, 0x2A, 0x2F, 0x26 ; ...2#*/&
  6EDC  DB 0x22, 0x23, 0x22, 0x02, 0x03, 0x03, 0x03, 0x02 ; "#".....
  6EE4  DB 0x01, 0x01, 0xC0, 0x00, 0xC0, 0x0C, 0xE8, 0x98 ; ........
  6EEC  DB 0x18, 0xC8, 0x08, 0x08, 0x80, 0xAA, 0x00, 0x05 ; ........
  6EF4  DB 0x03, 0x0D, 0xAA, 0x02, 0x01, 0x01, 0xC0, 0x00 ; ........
  6EFC  DB 0x40, 0x00, 0x40, 0x00, 0x00, 0x40, 0x40, 0x80 ; @.@..@@.
  6F04  DB 0x80, 0xAA, 0x00, 0x05, 0xAA, 0x03, 0x02, 0x03 ; ........
  6F0C  DB 0x32, 0x23, 0x26, 0x2E, 0x27, 0x22, 0x22, 0x03 ; 2#&.'"".
  6F14  DB 0x03, 0x03, 0x02, 0x01, 0x01, 0xC0, 0x0C, 0xC8 ; ........
  6F1C  DB 0x18, 0xF8, 0x98, 0x08, 0xC8, 0x08, 0x00, 0x80 ; ........
  6F24  DB 0xAA, 0x00, 0x05, 0xAA, 0x04, 0x00, 0x04, 0x04 ; ........
  6F2C  DB 0x04, 0x04, 0x15, 0x14, 0x05, 0x05, 0xAA, 0x04 ; ........
  6F34  DB 0x06, 0xAA, 0x20, 0x0E, 0x2F, 0x2F, 0x2F, 0x2F ; .. .////
  6F3C  DB 0xAB, 0x2A, 0xAE, 0xAC, 0x2C, 0x28, 0x28, 0x20 ; .*..,(( 
  6F44  DB 0x20, 0x20, 0x02, 0x7E, 0xFB, 0xFB, 0xFB, 0xFB ;   .~....
  6F4C  DB 0xEA, 0x6B, 0x7A, 0x3A, 0x3B, 0x1B, 0x1A, 0x0A ; .kz:;...
  6F54  DB 0x0A, 0x02, 0x40, 0x70, 0xD0, 0xD0, 0xD0, 0xD0 ; ..@p....
  6F5C  DB 0x54, 0xD4, 0x50, 0x50, 0xD0, 0xD0, 0x50, 0x50 ; T.PP..PP
  6F64  DB 0x50, 0x40, 0x80, 0x40, 0x20, 0x1F, 0x10, 0x17 ; P@.@ ...
  6F6C  DB 0x10, 0x17, 0x10, 0x17, 0x10, 0x17, 0x10, 0x1F ; ........
  6F74  DB 0x3F, 0x7F, 0x00, 0x01, 0x03, 0xFF, 0x07, 0xF7 ; ?.......
  6F7C  DB 0x07, 0xF7, 0x07, 0xF7, 0x07, 0xF7, 0x07, 0xFB ; ........
  6F84  DB 0xFD, 0xFE, 0x7F, 0xBF, 0xDF, 0xE0, 0xEF, 0xE8 ; ........
  6F8C  DB 0xEF, 0xE8, 0xEF, 0xE8, 0xEF, 0xE8, 0xEF, 0xE0 ; ........
  6F94  DB 0xC0, 0x80, 0xFF, 0xFE, 0xFC, 0x00, 0xF8, 0x08 ; ........
  6F9C  DB 0xF8, 0x08, 0xF8, 0x08, 0xF8, 0x08, 0xF8, 0x04 ; ........
  6FA4  DB 0x02, 0x01, 0x04, 0x01, 0x00, 0x04, 0x0D, 0x0D ; ........
  6FAC  DB 0x0C, 0x00, 0x04, 0x0B, 0x04, 0x04, 0x04, 0x02 ; ........
  6FB4  DB 0x02, 0x03, 0x20, 0x80, 0x00, 0x20, 0xB4, 0xB4 ; .. .. ..
  6FBC  DB 0x34, 0x04, 0x24, 0xF4, 0xE8, 0xE8, 0xE8, 0xD0 ; 4.$.....
  6FC4  DB 0xD0, 0xD0, 0x04, 0x01, 0x04, 0x1B, 0x24, 0x44 ; ......$D
  6FCC  DB 0x44, 0x42, 0x42, 0x43, 0xAA, 0x00, 0x06, 0xAA ; DBBC....
  6FD4  DB 0x20, 0x80, 0x20, 0xF8, 0xE4, 0xE1, 0xE1, 0xAA ;  . .....
  6FDC  DB 0xC1, 0x03, 0x00, 0x06, 0xAA, 0x03, 0x0E, 0x0F ; ........
  6FE4  DB 0x1B, 0x32, 0x32, 0x33, 0x3F, 0x3B, 0x34, 0x1B ; .223?;4.
  6FEC  DB 0x1B, 0x1B, 0x0D, 0x0D, 0x0C, 0xC0, 0x70, 0xF0 ; ......p.
  6FF4  DB 0xD8, 0x48, 0x48, 0xC8, 0xF8, 0xD8, 0x08, 0x10 ; .HH.....
  6FFC  DB 0x10, 0x10, 0x20, 0x20, 0x20, 0x03, 0x0E, 0x1B ; ..   ...
  7004  DB 0x24, 0x5B, 0x83, 0x83, 0x81, 0x81, 0x80, 0xAA ; $[......
  700C  DB 0x00, 0x06, 0xAA, 0xC0, 0x70, 0xD8, 0x04, 0x1A ; ....p...
  7014  DB 0xAA, 0x02, 0x05, 0x00, 0x08, 0x01, 0x01, 0x03 ; ........
  701C  DB 0x01, 0x01, 0x02, 0x00, 0x05, 0xAA, 0x01, 0x02 ; ........
  7024  DB 0x00, 0x00, 0x00, 0x70, 0xF8, 0xF8, 0x78, 0xB8 ; ...p..x.
  702C  DB 0xD8, 0xE8, 0xF0, 0x78, 0x78, 0xB8, 0x38, 0x18 ; ...xx.8.
  7034  DB 0x18, 0x18, 0x18, 0x0E, 0x1F, 0x1F, 0x1E, 0x1D ; ........
  703C  DB 0x1B, 0x17, 0x0F, 0x1E, 0x1E, 0x1D, 0x1C, 0x18 ; ........
  7044  DB 0x18, 0x18, 0x18, 0x00, 0x00, 0x80, 0xC0, 0x80 ; ........
  704C  DB 0x80, 0xAA, 0x00, 0x05, 0xAA, 0x80, 0x40, 0x00 ; ......@.
  7054  DB 0x00, 0x00, 0x1C, 0x3E, 0x7E, 0xDE, 0x6F, 0x76 ; ...>~.ov
  705C  DB 0x3A, 0x3D, 0x1E, 0x1E, 0x2F, 0x4E, 0x86, 0x06 ; :=../N..
  7064  DB 0x02, 0x02, 0x70, 0xF8, 0xFC, 0xF6, 0xEC, 0xDC ; ..p.....
  706C  DB 0xB8, 0x78, 0xF0, 0xF0, 0xE8, 0xE4, 0xC2, 0xC1 ; .x......
  7074  DB 0x80, 0x80, 0x00, 0x40, 0x22, 0x16, 0x0E, 0x0C ; ...@"...
  707C  DB 0x15, 0x15, 0x0C, 0x0C, 0x13, 0x21, 0x00, 0xEC ; .....!..
  7084  DB 0xEC, 0xEC, 0x00, 0x02, 0x44, 0x68, 0x70, 0x30 ; ....Dhp0
  708C  DB 0xA8, 0xA8, 0x30, 0x30, 0xC8, 0x84, 0x00, 0x37 ; ..00...7
  7094  DB 0x37, 0x37, 0x00, 0x83, 0x45, 0x29, 0x11, 0x13 ; 77..E)..
  709C  DB 0x2A, 0x2A, 0x13, 0x13, 0x20, 0x40, 0xFE, 0x10 ; **.. @..
  70A4  DB 0x10, 0x10, 0x00, 0xC4, 0xA8, 0x90, 0x88, 0xC8 ; ........
  70AC  DB 0x54, 0x54, 0xC8, 0xC8, 0x10, 0x08, 0x7F, 0x48 ; TT.....H
  70B4  DB 0x48, 0x48, 0xAA, 0xAA, 0x00, 0xD5, 0x75, 0x21 ; HH....u!
  70BC  DB 0x72, 0x53, 0x72, 0x26, 0x78, 0x26, 0x78, 0x26 ; rSr&x&x&
  70C4  DB 0x78, 0x1D, 0x79, 0xBE, 0x79, 0xFB, 0x79, 0x2A ; x.y.y.y*
  70CC  DB 0x7A, 0xD4, 0x7A, 0x07, 0x7B, 0x07, 0x7B, 0x07 ; z.z.{.{.
  70D4  DB 0x7B, 0x07, 0x7B, 0xEB, 0x7B, 0x8A, 0x7C, 0xB3 ; {.{.{.|.
  70DC  DB 0x7C, 0xA4, 0x74, 0x68, 0x86, 0x35, 0x86, 0x0F ; |.th.5..
  70E4  DB 0x7D, 0x0F, 0x7D, 0xB4, 0x7D, 0xB4, 0x7D, 0xE2 ; }.}.}.}.
  70EC  DB 0x7D, 0xF3, 0x7D, 0x78, 0x7E, 0x86, 0x7E, 0x9C ; }.}x~.~.
  70F4  DB 0x7E, 0x84, 0x7F, 0x9C, 0x7E, 0x84, 0x7F, 0x99 ; ~...~...
  70FC  DB 0x7F, 0x46, 0x84, 0x96, 0x82, 0xDD, 0x84, 0x01 ; .F......
  7104  DB 0x85, 0x25, 0x85, 0x2C, 0x85, 0x2F, 0x85, 0xCC ; .%.,./..
  710C  DB 0x85, 0xD6, 0x85, 0xD0, 0x82, 0xEE, 0x85, 0x94 ; ........
  7114  DB 0x80, 0x94, 0x80, 0x94, 0x80, 0x94, 0x80, 0x94 ; ........
  711C  DB 0x80, 0x94, 0x80, 0x94, 0x80, 0x94, 0x80, 0x94 ; ........
  7124  DB 0x80, 0x94, 0x80, 0x9D, 0x81, 0xD1, 0x81, 0x47 ; .......G
  712C  DB 0x82, 0x69, 0x82, 0x9E, 0x86, 0x02, 0x83, 0x09 ; .i......
  7134  DB 0x87, 0xAF, 0x78, 0x79, 0x82, 0x99, 0x7F, 0x99 ; ..xy....
  713C  DB 0x7F, 0x9F, 0x83, 0xA1, 0x77, 0x67, 0x7A, 0xAB ; ....wgz.
  7144  DB 0x87, 0xAB, 0x87, 0x83, 0x89, 0x5A, 0x8A, 0x5A ; .....Z.Z
  714C  DB 0x8A, 0x5A, 0x8A, 0x5A, 0x8A, 0x5A, 0x8A, 0x5A ; .Z.Z.Z.Z
  7154  DB 0x8A, 0x5A, 0x8A, 0x14, 0x8E, 0xAB, 0x87, 0xAB ; .Z......
  715C  DB 0x87, 0x3A, 0x8E, 0xB7, 0x8E, 0xB7, 0x8E, 0xB7 ; .:......
  7164  DB 0x8E, 0xAB, 0x87, 0xAB, 0x87, 0xAB, 0x87, 0x00 ; ........
  716C  DB 0x3C, 0x28, 0x13, 0x23, 0x23, 0x23, 0x23, 0x23 ; <(.#####
  7174  DB 0x23, 0x23, 0x23, 0x23, 0x23, 0x23, 0x23, 0x23 ; ########
  717C  DB 0x23, 0x23, 0x23, 0x23, 0x23, 0x23, 0x23, 0x23 ; ########
  7184  DB 0x23, 0x23, 0x23, 0x23, 0x23, 0x23, 0x23, 0x23 ; ########
  718C  DB 0x23, 0x23, 0x23, 0x23, 0x28, 0x28, 0x27, 0x28 ; ####(('(
  7194  DB 0x28, 0x28, 0x28, 0x23, 0x23, 0x23, 0x23, 0x23 ; (((#####
  719C  DB 0x23, 0x23, 0x23, 0x23, 0x23, 0x23, 0x23, 0x23 ; ########
  71A4  DB 0x23, 0x23, 0x23, 0x3C, 0x23, 0x28, 0x28, 0x28 ; ###<#(((
  71AC  DB 0x23, 0x23, 0x23, 0x28, 0x28, 0x50, 0x50, 0x28 ; ###((PP(
  71B4  DB 0x50, 0x50, 0x50, 0x50, 0x50, 0x50, 0x50, 0x28 ; PPPPPPP(
  71BC  DB 0x50, 0x28, 0x28, 0x50, 0x50, 0x50, 0x50, 0x50 ; P((PPPPP
  71C4  DB 0x50, 0xCD, 0xC0, 0x43, 0x7C, 0xE6, 0x7F, 0x67 ; P..C|..g
  71CC  DB 0x7D, 0xE6, 0x1F, 0x84, 0xC6, 0x28, 0xDD, 0x77 ; }....(.w
  71D4  DB 0x02, 0xDD, 0x36, 0x01, 0x00, 0xC9, 0xD5, 0xCD ; ..6.....
  71DC  DB 0x96, 0x44, 0x38, 0x11, 0xDD, 0x75, 0x1B, 0xDD ; .D8..u..
  71E4  DB 0x74, 0x1C, 0x36, 0x27, 0x11, 0x04, 0x00, 0x19 ; t.6'....
  71EC  DB 0x36, 0x81, 0x2B, 0xD1, 0xC9, 0xD1, 0xC1, 0xC3 ; 6.+.....
  71F4  DB 0xD0, 0x48, 0xED, 0x5B, 0x22, 0xE1, 0xDD, 0x7E ; .H.["..~
  71FC  DB 0x01, 0xD6, 0x11, 0x12, 0xDD, 0x7E, 0x02, 0x13 ; .....~..
  7204  DB 0x12, 0xDD, 0x6E, 0x1B, 0xDD, 0x66, 0x1C, 0x23 ; ..n..f.#
  720C  DB 0x23, 0x23, 0x13, 0x7E, 0x12, 0x23, 0x13, 0x7E ; ##.~.#.~
  7214  DB 0x12, 0x13, 0xED, 0x53, 0x22, 0xE1, 0x11, 0x14 ; ...S"...
  721C  DB 0x00, 0x19, 0x36, 0x02, 0xC9, 0xDD, 0xCB, 0x00 ; ..6.....
  7224  DB 0x7E, 0xC2, 0x98, 0x48, 0x3A, 0x0F, 0xE1, 0xDD ; ~..H:...
  722C  DB 0x77, 0x03, 0xCB, 0x3F, 0xCB, 0x3F, 0xC6, 0x03 ; w..?.?..
  7234  DB 0xCD, 0x89, 0x51, 0xDD, 0x36, 0x04, 0x8F, 0xDD ; ..Q.6...
  723C  DB 0x36, 0x05, 0x00, 0xDD, 0x36, 0x0C, 0x01, 0x3A ; 6...6..:
  7244  DB 0x0E, 0xE1, 0x2F, 0xDD, 0x36, 0x08, 0x00, 0xDD ; ../.6...
  724C  DB 0x77, 0x09, 0xDD, 0xCB, 0x00, 0xFE, 0xC9, 0xDD ; w.......
  7254  DB 0xCB, 0x00, 0x7E, 0xC2, 0x79, 0x72, 0xDD, 0xCB ; ..~.yr..
  725C  DB 0x00, 0xFE, 0x3E, 0x06, 0xCD, 0x89, 0x51, 0x3A ; ..>...Q:
  7264  DB 0x4B, 0xE1, 0xCD, 0x2E, 0x5C, 0xB3, 0x72, 0xA8 ; K...\.r.
  726C  DB 0x72, 0x9D, 0x72, 0x31, 0x73, 0xCE, 0x73, 0xC8 ; r.r1s.s.
  7274  DB 0x73, 0xCE, 0x73, 0x8F, 0x72, 0x3A, 0x4B, 0xE1 ; s.s.r:K.
  727C  DB 0xCD, 0x2E, 0x5C, 0xDE, 0x72, 0xEA, 0x72, 0xF5 ; ..\.r.r.
  7284  DB 0x72, 0x5D, 0x73, 0x39, 0x74, 0x64, 0x74, 0x94 ; r]s9tdt.
  728C  DB 0x74, 0x06, 0x73, 0xCD, 0x0B, 0x73, 0x01, 0x01 ; t.s..s..
  7294  DB 0x03, 0x11, 0xC3, 0x08, 0x21, 0x21, 0x73, 0x18 ; ....!!s.
  729C  DB 0x1F, 0xCD, 0x94, 0x75, 0x01, 0x00, 0x00, 0x11 ; ...u....
  72A4  DB 0x00, 0x24, 0x18, 0x14, 0xCD, 0x2A, 0x73, 0x01 ; .$...*s.
  72AC  DB 0x00, 0x01, 0x11, 0xFE, 0x08, 0x18, 0x09, 0x01 ; ........
  72B4  DB 0x01, 0x03, 0x11, 0xC2, 0x0C, 0x21, 0x58, 0x77 ; .....!Xw
  72BC  DB 0xDD, 0x36, 0x04, 0x80, 0xDD, 0x72, 0x03, 0xDD ; .6...r..
  72C4  DB 0x70, 0x0C, 0xDD, 0x73, 0x17, 0xDD, 0x36, 0x08 ; p..s..6.
  72CC  DB 0x00, 0xDD, 0x73, 0x09, 0xCB, 0x09, 0x28, 0x0A ; ..s...(.
  72D4  DB 0xDD, 0x5E, 0x1A, 0x16, 0x00, 0x19, 0x5E, 0xCD ; .^....^.
  72DC  DB 0xF7, 0x4C, 0xDD, 0x7E, 0x04, 0x3C, 0xE6, 0x8F ; .L.~.<..
  72E4  DB 0xDD, 0x77, 0x04, 0xC3, 0x98, 0x48, 0xCD, 0xDE ; .w...H..
  72EC  DB 0x72, 0xDD, 0xCB, 0x00, 0x7E, 0xC0, 0xC3, 0x9C ; r...~...
  72F4  DB 0x74, 0x3A, 0x01, 0xE3, 0xD6, 0x08, 0xDD, 0x77 ; t:.....w
  72FC  DB 0x01, 0x3A, 0x02, 0xE3, 0xDD, 0x77, 0x02, 0xC3 ; .:...w..
  7304  DB 0xDE, 0x72, 0xCD, 0x0B, 0x73, 0x18, 0xD3, 0x21 ; .r..s..!
  730C  DB 0x4C, 0xE1, 0x35, 0xC0, 0x36, 0x3C, 0xCD, 0x94 ; L.5.6<..
  7314  DB 0x75, 0x21, 0x4D, 0xE1, 0x35, 0x7E, 0xFE, 0xFF ; u!M.5~..
  731C  DB 0xC0, 0xE1, 0xC3, 0x44, 0x75, 0x0B, 0x0B, 0x0B ; ...Du...
  7324  DB 0x0C, 0x0C, 0x0C, 0x0D, 0x0D, 0x0D, 0x21, 0x4D ; ......!M
  732C  DB 0xE1, 0x35, 0xC3, 0x94, 0x75, 0xDD, 0x36, 0x03 ; .5..u.6.
  7334  DB 0x10, 0xDD, 0x36, 0x04, 0x8F, 0xDD, 0x36, 0x0C ; ..6...6.
  733C  DB 0x00, 0xDD, 0x36, 0x0F, 0x00, 0xDD, 0x36, 0x10 ; ..6...6.
  7344  DB 0xF6, 0xDD, 0x36, 0x0D, 0x00, 0xDD, 0x36, 0x0E ; ..6...6.
  734C  DB 0xC0, 0xDD, 0x36, 0x17, 0xC3, 0xDD, 0x36, 0x11 ; ..6...6.
  7354  DB 0x01, 0xDD, 0x36, 0x12, 0xFF, 0xDD, 0xCB, 0x00 ; ..6.....
  735C  DB 0xFE, 0xDD, 0x35, 0x11, 0x20, 0x10, 0xDD, 0x36 ; ..5. ..6
  7364  DB 0x11, 0x01, 0xDD, 0x34, 0x12, 0xDD, 0x7E, 0x12 ; ...4..~.
  736C  DB 0xE6, 0x0F, 0x5F, 0xCD, 0xF7, 0x4C, 0xDD, 0x6E ; .._..L.n
  7374  DB 0x08, 0xDD, 0x66, 0x09, 0xDD, 0x5E, 0x0D, 0xDD ; ..f..^..
  737C  DB 0x56, 0x0E, 0x19, 0xDD, 0x75, 0x0D, 0xDD, 0x74 ; V...u..t
  7384  DB 0x0E, 0x3A, 0x01, 0xE3, 0xFE, 0x38, 0x30, 0x04 ; .:...80.
  738C  DB 0x3E, 0x38, 0x18, 0x06, 0xFE, 0xA8, 0x38, 0x02 ; >8....8.
  7394  DB 0x3E, 0xA7, 0x84, 0xDD, 0x77, 0x01, 0xDD, 0x6E ; >...w..n
  739C  DB 0x0A, 0xDD, 0x66, 0x0B, 0xDD, 0x5E, 0x0F, 0xDD ; ..f..^..
  73A4  DB 0x56, 0x10, 0x19, 0xDD, 0x75, 0x0F, 0xDD, 0x74 ; V...u..t
  73AC  DB 0x10, 0x3A, 0x02, 0xE3, 0xFE, 0x48, 0x30, 0x04 ; .:...H0.
  73B4  DB 0x3E, 0x48, 0x18, 0x06, 0xFE, 0xA8, 0x38, 0x02 ; >H....8.
  73BC  DB 0x3E, 0xA7, 0x84, 0xDD, 0x77, 0x02, 0xCD, 0x0B ; >...w...
  73C4  DB 0x73, 0xC3, 0xB8, 0x48, 0xDD, 0x36, 0x03, 0x0C ; s..H.6..
  73CC  DB 0x18, 0x04, 0xDD, 0x36, 0x03, 0x10, 0xDD, 0x36 ; ...6...6
  73D4  DB 0x04, 0x8F, 0xDD, 0x36, 0x08, 0x00, 0xDD, 0x36 ; ...6...6
  73DC  DB 0x09, 0xFE, 0xDD, 0x36, 0x0C, 0x01, 0xCD, 0x2A ; ...6...*
  73E4  DB 0x73, 0x3A, 0x4B, 0xE1, 0xD6, 0x05, 0xCA, 0x64 ; s:K....d
  73EC  DB 0x74, 0x3D, 0xCA, 0x94, 0x74, 0xDD, 0x36, 0x03 ; t=..t.6.
  73F4  DB 0x24, 0xDD, 0x36, 0x09, 0xFF, 0xDD, 0x36, 0x0C ; $.6...6.
  73FC  DB 0x03, 0xDD, 0x7E, 0x02, 0xFE, 0x50, 0x30, 0x04 ; ..~..P0.
  7404  DB 0x3E, 0x50, 0x18, 0x06, 0xFE, 0xA1, 0x38, 0x02 ; >P....8.
  740C  DB 0x3E, 0xA0, 0xDD, 0x77, 0x14, 0xC6, 0x18, 0xDD ; >..w....
  7414  DB 0x77, 0x02, 0xDD, 0x7E, 0x01, 0xFE, 0x50, 0x30 ; w..~..P0
  741C  DB 0x04, 0xDD, 0x36, 0x01, 0x50, 0xDD, 0x36, 0x0A ; ..6.P.6.
  7424  DB 0x00, 0xDD, 0x36, 0x0B, 0xF4, 0xDD, 0x36, 0x0F ; ..6...6.
  742C  DB 0x00, 0xDD, 0x36, 0x10, 0x04, 0xDD, 0x36, 0x1C ; ..6...6.
  7434  DB 0x46, 0xDD, 0x36, 0x1B, 0x3C, 0xDD, 0x6E, 0x0A ; F.6.<.n.
  743C  DB 0xDD, 0x66, 0x0B, 0xDD, 0x5E, 0x0F, 0xDD, 0x56 ; .f..^..V
  7444  DB 0x10, 0x19, 0xDD, 0x7E, 0x02, 0xDD, 0xBE, 0x14 ; ...~....
  744C  DB 0x38, 0x05, 0xED, 0x52, 0xA7, 0xED, 0x52, 0xDD ; 8..R..R.
  7454  DB 0x75, 0x0A, 0xDD, 0x74, 0x0B, 0xDD, 0x35, 0x1C ; u..t..5.
  745C  DB 0x20, 0x36, 0xDD, 0x36, 0x0C, 0x02, 0x18, 0x30 ;  6.6...0
  7464  DB 0xDD, 0x7E, 0x01, 0xFE, 0x10, 0x30, 0x04, 0xDD ; .~...0..
  746C  DB 0x36, 0x01, 0x10, 0x3A, 0x02, 0xE3, 0xDD, 0x77 ; 6..:...w
  7474  DB 0x02, 0x3A, 0x01, 0xE3, 0xC6, 0x10, 0xDD, 0xBE ; .:......
  747C  DB 0x01, 0x30, 0x05, 0xCD, 0xD0, 0x48, 0x18, 0x18 ; .0...H..
  7484  DB 0xDD, 0x6E, 0x08, 0xDD, 0x66, 0x09, 0x11, 0x04 ; .n..f...
  748C  DB 0x00, 0x19, 0xDD, 0x75, 0x08, 0xDD, 0x74, 0x09 ; ...u..t.
  7494  DB 0xCD, 0x98, 0x48, 0xDD, 0xCB, 0x00, 0x7E, 0xC0 ; ..H...~.
  749C  DB 0x3A, 0x4D, 0xE1, 0xA7, 0xC0, 0xC3, 0x44, 0x75 ; :M....Du
  74A4  DB 0xDD, 0x36, 0x00, 0x83, 0x3A, 0x4B, 0xE1, 0xCD ; .6..:K..
  74AC  DB 0x2E, 0x5C, 0xBE, 0x74, 0xEA, 0x72, 0xC1, 0x74 ; .\.t.r.t
  74B4  DB 0x5D, 0x73, 0xE2, 0x74, 0x64, 0x74, 0x11, 0x75 ; ]s.tdt.u
  74BC  DB 0x06, 0x73, 0xC3, 0xD0, 0x48, 0x3E, 0x18, 0xCD ; .s..H>..
  74C4  DB 0x89, 0x51, 0x21, 0x4D, 0xE1, 0x35, 0x7E, 0xFE ; .Q!M.5~.
  74CC  DB 0xFF, 0xCA, 0x44, 0x75, 0xCD, 0x94, 0x75, 0x3A ; ..Du..u:
  74D4  DB 0x4D, 0xE1, 0xFE, 0x14, 0xC2, 0xF5, 0x72, 0xDD ; M.....r.
  74DC  DB 0x36, 0x03, 0x20, 0xC3, 0xF5, 0x72, 0x3E, 0x18 ; 6. ..r>.
  74E4  DB 0xCD, 0x89, 0x51, 0xDD, 0x35, 0x1B, 0x28, 0x1B ; ..Q.5.(.
  74EC  DB 0xDD, 0x7E, 0x1B, 0xFE, 0x1E, 0xC2, 0xFB, 0x74 ; .~.....t
  74F4  DB 0xDD, 0x36, 0x03, 0x20, 0xC3, 0x39, 0x74, 0xFE ; .6. .9t.
  74FC  DB 0x0F, 0xC2, 0x39, 0x74, 0xDD, 0x36, 0x04, 0x81 ; ..9t.6..
  7504  DB 0xC3, 0x39, 0x74, 0x3A, 0x4D, 0xE1, 0xA7, 0xCA ; .9t:M...
  750C  DB 0x44, 0x75, 0xC3, 0xD0, 0x48, 0xCD, 0x26, 0x8A ; Du..H.&.
  7514  DB 0x3E, 0x13, 0xCD, 0x89, 0x51, 0xCD, 0xD0, 0x48 ; >...Q..H
  751C  DB 0xC3, 0x9C, 0x74, 0x00, 0x02, 0x64, 0x03, 0x64 ; ..t..d.d
  7524  DB 0x01, 0xC8, 0x01, 0x1E, 0x01, 0x64, 0x03, 0x0F ; .....d..
  752C  DB 0x03, 0xFA, 0x03, 0x38, 0x1E, 0x1E, 0x42, 0x02 ; ...8..B.
  7534  DB 0x78, 0x3A, 0x28, 0x3C, 0x1E, 0x1E, 0x1E, 0x41 ; x:(<...A
  753C  DB 0x0A, 0xC8, 0x0A, 0x64, 0x14, 0x43, 0x0A, 0x50 ; ...d.C.P
  7544  DB 0x97, 0x32, 0x4F, 0xE1, 0x5F, 0x21, 0x4B, 0xE1 ; .2O._!K.
  754C  DB 0x56, 0x77, 0x87, 0x4F, 0x06, 0x00, 0x21, 0x1F ; Vw.O..!.
  7554  DB 0x75, 0x09, 0x3E, 0x3C, 0x32, 0x4C, 0xE1, 0x7E ; u.><2L.~
  755C  DB 0x32, 0x4D, 0xE1, 0x23, 0x7E, 0x32, 0x4E, 0xE1 ; 2M.#~2N.
  7564  DB 0x7B, 0xFE, 0x02, 0x20, 0x03, 0x3C, 0x18, 0x05 ; {.. .<..
  756C  DB 0xBA, 0x28, 0x05, 0x3E, 0x28, 0x32, 0x80, 0xE3 ; .(.>(2..
  7574  DB 0x7B, 0xFE, 0x02, 0x20, 0x1B, 0x3A, 0x0B, 0xE1 ; {.. .:..
  757C  DB 0x5F, 0x87, 0x83, 0x5F, 0x16, 0x00, 0x21, 0x2F ; _.._..!/
  7584  DB 0x75, 0x19, 0x3A, 0x01, 0xE7, 0xFE, 0x05, 0x38 ; u.:....8
  758C  DB 0x04, 0x11, 0x03, 0x00, 0x19, 0xCD, 0xBC, 0x97 ; ........
  7594  DB 0xCD, 0xED, 0x42, 0x21, 0x59, 0x3A, 0xCD, 0x53 ; ..B!Y:.S
  759C  DB 0x00, 0xCD, 0x1F, 0x5C, 0x46, 0x49, 0x52, 0x45 ; ...\FIRE
  75A4  DB 0x20, 0x00, 0x3A, 0x4B, 0xE1, 0xC6, 0x30, 0xCD ;  .:K..0.
  75AC  DB 0xFC, 0x5B, 0x21, 0x7A, 0x3A, 0xCD, 0x53, 0x00 ; .[!z:.S.
  75B4  DB 0x3A, 0x4B, 0xE1, 0xA7, 0x28, 0x0F, 0x3A, 0x4D ; :K..(.:M
  75BC  DB 0xE1, 0xCD, 0x8D, 0x4B, 0xCD, 0x1F, 0x5C, 0x20 ; ...K..\ 
  75C4  DB 0x20, 0x00, 0xC3, 0xF8, 0x42, 0xCD, 0x1F, 0x5C ;  ...B..\
  75CC  DB 0x20, 0x20, 0x20, 0x20, 0x20, 0x00, 0xC3, 0xF8 ;      ...
  75D4  DB 0x42, 0xDD, 0xCB, 0x00, 0x7E, 0x20, 0x37, 0xDD ; B...~ 7.
  75DC  DB 0xCB, 0x00, 0xFE, 0xDD, 0x36, 0x01, 0xA0, 0xDD ; ....6...
  75E4  DB 0x36, 0x02, 0x78, 0xDD, 0x36, 0x03, 0x38, 0xDD ; 6.x.6.8.
  75EC  DB 0x36, 0x04, 0x8F, 0xDD, 0x36, 0x0C, 0x00, 0xDD ; 6...6...
  75F4  DB 0x36, 0x17, 0x05, 0xDD, 0x36, 0x1B, 0x40, 0xDD ; 6...6.@.
  75FC  DB 0xCB, 0x05, 0xFE, 0xCD, 0x44, 0x75, 0x97, 0x32 ; ....Du.2
  7604  DB 0x0B, 0xE1, 0x32, 0x30, 0xE1, 0xCD, 0xD6, 0xBF ; ..20....
  760C  DB 0xCD, 0x4D, 0x4C, 0xCD, 0x71, 0x77, 0xCD, 0x43 ; .ML.qw.C
  7614  DB 0x43, 0x3A, 0x0C, 0xE1, 0xFE, 0x04, 0xCA, 0x74 ; C:.....t
  761C  DB 0x76, 0x5F, 0x16, 0x00, 0x21, 0x58, 0x77, 0x19 ; v_..!Xw.
  7624  DB 0x5E, 0xCD, 0xF7, 0x4C, 0xDD, 0x5E, 0x08, 0xDD ; ^..L.^..
  762C  DB 0x56, 0x09, 0xDD, 0x6E, 0x06, 0xDD, 0x66, 0x01 ; V..n..f.
  7634  DB 0x19, 0x7C, 0xFE, 0x1E, 0x30, 0x06, 0x26, 0x1E ; .|..0.&.
  763C  DB 0x2E, 0x00, 0x18, 0x08, 0xFE, 0xB8, 0x38, 0x04 ; ......8.
  7644  DB 0x26, 0xB8, 0x2E, 0x00, 0xDD, 0x74, 0x01, 0xDD ; &....t..
  764C  DB 0x75, 0x06, 0xDD, 0x5E, 0x0A, 0xDD, 0x56, 0x0B ; u..^..V.
  7654  DB 0xDD, 0x6E, 0x07, 0xDD, 0x66, 0x02, 0x19, 0x7C ; .n..f..|
  765C  DB 0xFE, 0x28, 0x30, 0x06, 0x26, 0x28, 0x2E, 0x00 ; .(0.&(..
  7664  DB 0x18, 0x08, 0xFE, 0xC8, 0x38, 0x04, 0x26, 0xC8 ; ....8.&.
  766C  DB 0x2E, 0x00, 0xDD, 0x74, 0x02, 0xDD, 0x75, 0x07 ; ...t..u.
  7674  DB 0x21, 0x3F, 0xE1, 0x34, 0x20, 0x01, 0x35, 0x3A ; !?.4 .5:
  767C  DB 0x00, 0xE1, 0xCB, 0x67, 0x28, 0x07, 0x3E, 0x01 ; ...g(.>.
  7684  DB 0x32, 0x10, 0xE1, 0x18, 0x60, 0x21, 0x10, 0xE1 ; 2...`!..
  768C  DB 0x35, 0x20, 0x5A, 0x36, 0x14, 0x3A, 0x3F, 0xE1 ; 5 Z6.:?.
  7694  DB 0xFE, 0x12, 0x38, 0x04, 0x3E, 0x01, 0x18, 0x0A ; ..8.>...
  769C  DB 0xD6, 0x02, 0x5F, 0x16, 0x00, 0x21, 0x61, 0x77 ; .._..!aw
  76A4  DB 0x19, 0x7E, 0xF5, 0x21, 0x2F, 0xE1, 0x86, 0x77 ; .~.!/..w
  76AC  DB 0xDC, 0xAB, 0xBF, 0xF1, 0x21, 0x31, 0xE1, 0x86 ; ....!1..
  76B4  DB 0x77, 0xDC, 0xC8, 0xBF, 0x97, 0x32, 0x3F, 0xE1 ; w....2?.
  76BC  DB 0x21, 0x41, 0xE1, 0x34, 0x20, 0x01, 0x35, 0x21 ; !A.4 .5!
  76C4  DB 0x20, 0xE3, 0x11, 0x20, 0x00, 0x3A, 0x0D, 0xE1 ;  .. .:..
  76CC  DB 0x47, 0x7E, 0xB7, 0x28, 0x05, 0x19, 0x10, 0xF9 ; G~.(....
  76D4  DB 0x18, 0x13, 0xE5, 0xFD, 0xE1, 0x36, 0x02, 0x23 ; .....6.#
  76DC  DB 0xDD, 0x7E, 0x01, 0x77, 0x23, 0xDD, 0x7E, 0x02 ; .~.w#.~.
  76E4  DB 0x77, 0x21, 0x40, 0xE1, 0x34, 0x3A, 0x00, 0xE1 ; w!@.4:..
  76EC  DB 0xCB, 0x6F, 0x20, 0x20, 0xFD, 0x21, 0x80, 0xE3 ; .o  .!..
  76F4  DB 0x3A, 0x80, 0xE3, 0xA7, 0x20, 0x16, 0x3A, 0x0C ; :... .:.
  76FC  DB 0xE1, 0x32, 0x9A, 0xE3, 0xFD, 0x36, 0x00, 0x03 ; .2...6..
  7704  DB 0xDD, 0x7E, 0x01, 0x32, 0x81, 0xE3, 0xDD, 0x7E ; .~.2...~
  770C  DB 0x02, 0x32, 0x82, 0xE3, 0xDD, 0xCB, 0x05, 0x7E ; .2.....~
  7714  DB 0xCA, 0x2C, 0x77, 0xDD, 0x7E, 0x04, 0xEE, 0x0E ; .,w.~...
  771C  DB 0xDD, 0x77, 0x04, 0xDD, 0x35, 0x1B, 0x20, 0x08 ; .w..5. .
  7724  DB 0xDD, 0xCB, 0x05, 0xBE, 0xDD, 0x36, 0x04, 0x8F ; .....6..
  772C  DB 0xCD, 0x98, 0x48, 0x2A, 0x22, 0xE1, 0xDD, 0x7E ; ..H*"..~
  7734  DB 0x01, 0xC6, 0xF1, 0x77, 0x23, 0xDD, 0x7E, 0x02 ; ...w#.~.
  773C  DB 0x77, 0x23, 0x36, 0x3C, 0x23, 0x36, 0x81, 0x23 ; w#6<#6.#
  7744  DB 0x22, 0x22, 0xE1, 0xC9, 0x01, 0x00, 0x19, 0x00 ; ""......
  774C  DB 0x18, 0x00, 0x17, 0x00, 0xFF, 0xFF, 0xE7, 0xFF ; ........
  7754  DB 0xE8, 0xFF, 0xE9, 0xFF, 0x06, 0x08, 0x0A, 0x04 ; ........
  775C  DB 0x0C, 0x0C, 0x02, 0x00, 0x0E, 0x20, 0x10, 0x0A ; ..... ..
  7764  DB 0x08, 0x06, 0x05, 0x04, 0x04, 0x03, 0x03, 0x02 ; ........
  776C  DB 0x02, 0x02, 0x02, 0x02, 0x02, 0x21, 0x8F, 0x77 ; .....!.w
  7774  DB 0x3A, 0x0B, 0xE1, 0xE6, 0x0F, 0x47, 0x87, 0x80 ; :....G..
  777C  DB 0x4F, 0x06, 0x00, 0x09, 0x7E, 0x32, 0x0E, 0xE1 ; O...~2..
  7784  DB 0x23, 0x7E, 0x32, 0x0D, 0xE1, 0x23, 0x7E, 0x32 ; #~2..#~2
  778C  DB 0x0F, 0xE1, 0xC9, 0x04, 0x02, 0x28, 0x06, 0x03 ; .....(..
  7794  DB 0x28, 0x08, 0x02, 0x2C, 0x09, 0x03, 0x2C, 0x0A ; (..,..,.
  779C  DB 0x02, 0x30, 0x0E, 0x03, 0x30, 0xCD, 0xC0, 0x43 ; .0..0..C
  77A4  DB 0x7C, 0xE6, 0x3F, 0xC6, 0x38, 0x08, 0x3A, 0x04 ; |.?.8.:.
  77AC  DB 0xE1, 0x21, 0xEA, 0x77, 0xCD, 0xE0, 0x77, 0xEB ; .!.w..w.
  77B4  DB 0x3A, 0x05, 0xE1, 0x07, 0x07, 0x07, 0x07, 0x21 ; :......!
  77BC  DB 0x08, 0x78, 0xCD, 0xE0, 0x77, 0xD9, 0x0E, 0x03 ; .x..w...
  77C4  DB 0xDD, 0xE5, 0xD9, 0xC1, 0x1A, 0x13, 0x02, 0x03 ; ........
  77CC  DB 0x03, 0x08, 0x02, 0xC6, 0x20, 0x08, 0x7E, 0x23 ; .... .~#
  77D4  DB 0x03, 0x02, 0xD9, 0x0D, 0xC8, 0xCD, 0x96, 0x44 ; .......D
  77DC  DB 0xD8, 0xE5, 0x18, 0xE6, 0xE6, 0x0F, 0x4F, 0x87 ; ......O.
  77E4  DB 0x81, 0x4F, 0x06, 0x00, 0x09, 0xC9, 0x05, 0x06 ; .O......
  77EC  DB 0x05, 0x04, 0x05, 0x06, 0x05, 0x04, 0x04, 0x05 ; ........
  77F4  DB 0x05, 0x05, 0x04, 0x06, 0x04, 0x04, 0x04, 0x04 ; ........
  77FC  DB 0x06, 0x05, 0x04, 0x04, 0x05, 0x06, 0x05, 0x04 ; ........
  7804  DB 0x06, 0x04, 0x04, 0x06, 0x01, 0x21, 0x01, 0x21 ; .....!.!
  780C  DB 0x01, 0x21, 0x01, 0x21, 0x41, 0x41, 0x21, 0x01 ; .!.!AA!.
  7814  DB 0x11, 0x01, 0x11, 0x01, 0x11, 0x01, 0x21, 0x01 ; ......!.
  781C  DB 0x41, 0x41, 0x01, 0x21, 0x01, 0x11, 0x21, 0x21 ; AA.!..!!
  7824  DB 0x11, 0x01, 0xDD, 0xCB, 0x00, 0x7E, 0x20, 0x21 ; .....~ !
  782C  DB 0xDD, 0x35, 0x03, 0xC0, 0xCD, 0xDA, 0x71, 0x36 ; .5....q6
  7834  DB 0xD8, 0xDD, 0x36, 0x19, 0x05, 0xDD, 0x36, 0x03 ; ..6...6.
  783C  DB 0xD4, 0xDD, 0x36, 0x04, 0x8F, 0xDD, 0x36, 0x08 ; ..6...6.
  7844  DB 0xC0, 0xDD, 0x36, 0x0C, 0x01, 0xDD, 0xCB, 0x00 ; ..6.....
  784C  DB 0xFE, 0xCD, 0x98, 0x48, 0xCD, 0xF6, 0x71, 0xDD ; ...H..q.
  7854  DB 0xCB, 0x00, 0x7E, 0xC8, 0xCD, 0xBA, 0x44, 0xCD ; ..~...D.
  785C  DB 0x04, 0x79, 0x28, 0x18, 0xDD, 0x7E, 0x19, 0x3D ; .y(..~.=
  7864  DB 0xC0, 0xDD, 0x7E, 0x18, 0x06, 0x89, 0xD6, 0x04 ; ..~.....
  786C  DB 0x28, 0x06, 0x04, 0x3D, 0x28, 0x02, 0x06, 0x87 ; (..=(...
  7874  DB 0xDD, 0x70, 0x04, 0xC9, 0xDD, 0x7E, 0x18, 0xFE ; .p...~..
  787C  DB 0x05, 0xC8, 0xFE, 0x04, 0x28, 0x0D, 0xDD, 0x36 ; ....(..6
  7884  DB 0x03, 0x04, 0xDD, 0x36, 0x04, 0x8F, 0xDD, 0x36 ; ...6...6
  788C  DB 0x00, 0xBF, 0xC9, 0xDD, 0x36, 0x00, 0x26, 0xDD ; ....6.&.
  7894  DB 0x36, 0x1A, 0x03, 0xDD, 0x6E, 0x1B, 0xDD, 0x66 ; 6...n..f
  789C  DB 0x1C, 0x0E, 0x05, 0x3E, 0x26, 0xCD, 0xDB, 0x8D ; ...>&...
  78A4  DB 0xCD, 0x96, 0x44, 0xD8, 0x0E, 0x04, 0x3E, 0x26 ; ..D...>&
  78AC  DB 0xC3, 0xDB, 0x8D, 0xCD, 0x98, 0x48, 0xDD, 0xCB ; .....H..
  78B4  DB 0x00, 0x7E, 0xC8, 0xCD, 0xB0, 0x44, 0xDD, 0xCB ; .~...D..
  78BC  DB 0x00, 0x7E, 0xC0, 0x3E, 0x17, 0xCD, 0x89, 0x51 ; .~.>...Q
  78C4  DB 0xFD, 0x21, 0x00, 0xE3, 0xFD, 0x36, 0x00, 0x81 ; .!...6..
  78CC  DB 0xFD, 0xCB, 0x05, 0xFE, 0xFD, 0x36, 0x1B, 0x40 ; .....6.@
  78D4  DB 0xCD, 0xC8, 0xBF, 0x3A, 0x0B, 0xE1, 0x3C, 0xFE ; ...:..<.
  78DC  DB 0x06, 0x38, 0x19, 0x21, 0x48, 0xE1, 0x34, 0x21 ; .8.!H.4!
  78E4  DB 0x4F, 0xE1, 0x34, 0x7E, 0xFE, 0x05, 0xDA, 0xD0 ; O.4~....
  78EC  DB 0x48, 0x36, 0x00, 0x3A, 0x4B, 0xE1, 0xCD, 0x48 ; H6.:K..H
  78F4  DB 0x75, 0xC3, 0xD0, 0x48, 0x32, 0x0B, 0xE1, 0xCD ; u..H2...
  78FC  DB 0x71, 0x77, 0xCD, 0x4D, 0x4C, 0xC3, 0xD0, 0x48 ; qw.ML..H
  7904  DB 0xDD, 0xCB, 0x00, 0x7E, 0xE1, 0xC0, 0xE5, 0xDD ; ...~....
  790C  DB 0x35, 0x19, 0xC8, 0x3E, 0x14, 0xCD, 0x89, 0x51 ; 5..>...Q
  7914  DB 0xDD, 0x7E, 0x18, 0xF6, 0x80, 0xDD, 0x77, 0x00 ; .~....w.
  791C  DB 0xC9, 0xDD, 0xCB, 0x00, 0x7E, 0x20, 0x31, 0xCD ; ....~ 1.
  7924  DB 0xDA, 0x71, 0x36, 0xE4, 0xDD, 0x36, 0x02, 0x78 ; .q6..6.x
  792C  DB 0xDD, 0x36, 0x17, 0x01, 0xDD, 0x36, 0x09, 0x03 ; .6...6..
  7934  DB 0xDD, 0x36, 0x15, 0x10, 0xDD, 0x36, 0x0C, 0x09 ; .6...6..
  793C  DB 0xDD, 0x36, 0x03, 0xDC, 0xDD, 0x36, 0x04, 0x8F ; .6...6..
  7944  DB 0xDD, 0xCB, 0x00, 0xFE, 0xDD, 0x7E, 0x00, 0xD6 ; .....~..
  794C  DB 0x88, 0xCC, 0xC7, 0x79, 0x3D, 0xCA, 0x04, 0x7A ; ...y=..z
  7954  DB 0xDD, 0x6E, 0x1B, 0xDD, 0x66, 0x1C, 0xE5, 0xFD ; .n..f...
  795C  DB 0xE1, 0xDD, 0x7E, 0x09, 0xB7, 0x28, 0x0E, 0xFE ; ..~..(..
  7964  DB 0xFF, 0x20, 0x47, 0xDD, 0x36, 0x03, 0xDC, 0xFD ; . G.6...
  796C  DB 0x36, 0x03, 0xE4, 0x18, 0x3D, 0xDD, 0x36, 0x03 ; 6...=.6.
  7974  DB 0xE0, 0xFD, 0x36, 0x03, 0xE8, 0xDD, 0xBE, 0x08 ; ..6.....
  797C  DB 0x20, 0x30, 0xDD, 0x7E, 0x00, 0xFE, 0x88, 0xCA ;  0.~....
  7984  DB 0xCC, 0x79, 0xDD, 0x56, 0x01, 0xDD, 0x5E, 0x02 ; .y.V..^.
  798C  DB 0xD9, 0x21, 0xB7, 0x79, 0x06, 0x07, 0xD9, 0xD5 ; .!.y....
  7994  DB 0xCD, 0x96, 0x44, 0xD1, 0x38, 0x14, 0x36, 0x26 ; ..D.8.6&
  799C  DB 0x23, 0x72, 0x23, 0x73, 0xD5, 0x11, 0x18, 0x00 ; #r#s....
  79A4  DB 0x19, 0xD1, 0xD9, 0x7E, 0xD9, 0x77, 0xD9, 0x23 ; ...~.w.#
  79AC  DB 0x10, 0xE4, 0xCD, 0x98, 0x48, 0xCD, 0xF6, 0x71 ; ....H..q
  79B4  DB 0xC3, 0xBA, 0x44, 0x04, 0x05, 0x02, 0x07, 0x03 ; ..D.....
  79BC  DB 0x06, 0x01, 0xDD, 0xCB, 0x00, 0x7E, 0x20, 0x90 ; .....~ .
  79C4  DB 0xC3, 0x23, 0x79, 0xDD, 0x36, 0x04, 0x8B, 0xC9 ; .#y.6...
  79CC  DB 0xCD, 0x96, 0x44, 0xDA, 0xAE, 0x79, 0x36, 0x29 ; ..D..y6)
  79D4  DB 0xE5, 0x11, 0x1A, 0x00, 0x19, 0x36, 0x05, 0xCD ; .....6..
  79DC  DB 0x96, 0x44, 0xD1, 0xDA, 0xAE, 0x79, 0x36, 0x29 ; .D...y6)
  79E4  DB 0x23, 0x13, 0xDD, 0x7E, 0x01, 0x77, 0x12, 0x23 ; #..~.w.#
  79EC  DB 0x13, 0xDD, 0x7E, 0x02, 0x77, 0x12, 0x01, 0x18 ; ..~.w...
  79F4  DB 0x00, 0x09, 0x36, 0x13, 0xC3, 0xAE, 0x79, 0xDD ; ..6...y.
  79FC  DB 0xCB, 0x00, 0x7E, 0x20, 0x11, 0xC3, 0x23, 0x79 ; ..~ ..#y
  7A04  DB 0xDD, 0x36, 0x03, 0xE0, 0xDD, 0x36, 0x04, 0x83 ; .6...6..
  7A0C  DB 0x36, 0xE8, 0xDD, 0x36, 0x1D, 0x08, 0xDD, 0x35 ; 6..6...5
  7A14  DB 0x1D, 0xC2, 0xAE, 0x79, 0xDD, 0x36, 0x1D, 0x08 ; ...y.6..
  7A1C  DB 0xCD, 0x96, 0x44, 0xDA, 0xAE, 0x79, 0x3E, 0x14 ; ..D..y>.
  7A24  DB 0xCD, 0xDB, 0x8D, 0xC3, 0xAE, 0x79, 0xDD, 0xCB ; .....y..
  7A2C  DB 0x00, 0x7E, 0xC2, 0xAE, 0x79, 0xCD, 0xDA, 0x71 ; .~..y..q
  7A34  DB 0x36, 0x5C, 0xCD, 0xC5, 0x71, 0xDD, 0x36, 0x14 ; 6\..q.6.
  7A3C  DB 0x00, 0xFE, 0x88, 0x30, 0x03, 0xDD, 0x35, 0x14 ; ...0..5.
  7A44  DB 0xDD, 0x36, 0x03, 0x58, 0xDD, 0x36, 0x04, 0x89 ; .6.X.6..
  7A4C  DB 0xDD, 0x36, 0x0C, 0x13, 0xDD, 0x36, 0x08, 0x00 ; .6...6..
  7A54  DB 0xDD, 0x36, 0x09, 0x03, 0xDD, 0x36, 0x16, 0x08 ; .6...6..
  7A5C  DB 0xDD, 0x36, 0x17, 0x01, 0xDD, 0xCB, 0x00, 0xFE ; .6......
  7A64  DB 0xC3, 0xAE, 0x79, 0xDD, 0xCB, 0x00, 0x7E, 0x20 ; ..y...~ 
  7A6C  DB 0x2F, 0xDD, 0x7E, 0x01, 0xDD, 0x77, 0x18, 0xDD ; /.~..w..
  7A74  DB 0x7E, 0x02, 0xDD, 0x77, 0x19, 0xDD, 0x7E, 0x03 ; ~..w..~.
  7A7C  DB 0xDD, 0x77, 0x1C, 0xDD, 0x77, 0x1B, 0xCD, 0xC5 ; .w..w...
  7A84  DB 0x71, 0xDD, 0x7E, 0x02, 0xFE, 0x78, 0x11, 0x03 ; q.~..x..
  7A8C  DB 0x02, 0x38, 0x03, 0x11, 0x05, 0xFE, 0xDD, 0x72 ; .8.....r
  7A94  DB 0x0A, 0xDD, 0x73, 0x1A, 0xDD, 0xCB, 0x00, 0xFE ; ..s.....
  7A9C  DB 0x3A, 0x2D, 0xE1, 0xCB, 0x5F, 0xC0, 0xDD, 0x35 ; :-.._..5
  7AA4  DB 0x1B, 0xC0, 0xDD, 0x7E, 0x1C, 0xDD, 0x77, 0x1B ; ...~..w.
  7AAC  DB 0xCD, 0x96, 0x44, 0xD8, 0xDD, 0x4E, 0x1A, 0xDD ; ..D..N..
  7AB4  DB 0x7E, 0x18, 0xCD, 0xDB, 0x8D, 0xDD, 0x35, 0x19 ; ~.....5.
  7ABC  DB 0xCA, 0xD0, 0x48, 0xDD, 0x7E, 0x02, 0xDD, 0x86 ; ..H.~...
  7AC4  DB 0x0A, 0xDD, 0x77, 0x02, 0xFE, 0xC0, 0xD8, 0xDD ; ..w.....
  7ACC  DB 0x7E, 0x0A, 0x2F, 0x3C, 0xDD, 0x77, 0x0A, 0xC9 ; ~./<.w..
  7AD4  DB 0x3A, 0x30, 0xE1, 0x0F, 0x0F, 0x0F, 0xE6, 0x0E ; :0......
  7ADC  DB 0x4F, 0x06, 0x00, 0x21, 0xF7, 0x7A, 0x09, 0xDD ; O..!.z..
  7AE4  DB 0x36, 0x00, 0x45, 0x7E, 0xDD, 0x77, 0x01, 0x23 ; 6.E~.w.#
  7AEC  DB 0x7E, 0xDD, 0x77, 0x02, 0xDD, 0x36, 0x03, 0x28 ; ~.w..6.(
  7AF4  DB 0xC3, 0x67, 0x7A, 0x0A, 0x1E, 0x10, 0x08, 0x16 ; .gz.....
  7AFC  DB 0x0A, 0x17, 0x08, 0x30, 0x06, 0x08, 0x08, 0x41 ; ...0...A
  7B04  DB 0x06, 0x24, 0x1E, 0xDD, 0xCB, 0x00, 0x7E, 0x20 ; .$....~ 
  7B0C  DB 0x48, 0x11, 0x63, 0x7B, 0xDD, 0x7E, 0x00, 0xE6 ; H.c{.~..
  7B14  DB 0xFE, 0x6F, 0xED, 0x5F, 0xE6, 0x01, 0x85, 0x87 ; .o._....
  7B1C  DB 0x6F, 0x26, 0x00, 0x19, 0x5E, 0x23, 0x56, 0xCD ; o&..^#V.
  7B24  DB 0xDA, 0x71, 0x36, 0x64, 0x1A, 0x13, 0xDD, 0x77 ; .q6d...w
  7B2C  DB 0x01, 0x1A, 0x13, 0xDD, 0x77, 0x02, 0x1A, 0x13 ; ....w...
  7B34  DB 0xDD, 0x77, 0x04, 0xDD, 0x36, 0x0C, 0x03, 0xDD ; .w..6...
  7B3C  DB 0x73, 0x1D, 0xDD, 0x72, 0x1E, 0xDD, 0x36, 0x1F ; s..r..6.
  7B44  DB 0x01, 0xDD, 0x36, 0x18, 0x00, 0xDD, 0x36, 0x17 ; ..6...6.
  7B4C  DB 0x04, 0xDD, 0x36, 0x03, 0x60, 0xDD, 0xCB, 0x00 ; ..6.`...
  7B54  DB 0xFE, 0xDD, 0x35, 0x1F, 0xC2, 0xAE, 0x79, 0xDD ; ..5...y.
  7B5C  DB 0x36, 0x1F, 0x08, 0xDD, 0x6E, 0x1D, 0xDD, 0x66 ; 6...n..f
  7B64  DB 0x1E, 0xDD, 0x5E, 0x18, 0x16, 0x00, 0x19, 0x5E ; ..^....^
  7B6C  DB 0xCB, 0x7B, 0xCB, 0xBB, 0x20, 0x03, 0xDD, 0x34 ; .{.. ..4
  7B74  DB 0x18, 0xCD, 0xF7, 0x4C, 0xC3, 0xAE, 0x79, 0x83 ; ...L..y.
  7B7C  DB 0x7B, 0x98, 0x7B, 0xAE, 0x7B, 0xCC, 0x7B, 0x70 ; {.{.{.{p
  7B84  DB 0xD0, 0x8A, 0x08, 0x08, 0x08, 0x08, 0x07, 0x06 ; ........
  7B8C  DB 0x05, 0x04, 0x03, 0x02, 0x01, 0x00, 0x0F, 0x0E ; ........
  7B94  DB 0x0D, 0x0C, 0x0B, 0x8A, 0x70, 0x10, 0x8A, 0x00 ; ....p...
  7B9C  DB 0x00, 0x00, 0x00, 0x00, 0x01, 0x02, 0x03, 0x04 ; ........
  7BA4  DB 0x05, 0x06, 0x07, 0x08, 0x09, 0x0A, 0x0B, 0x0C ; ........
  7BAC  DB 0x0D, 0x8E, 0x20, 0xD0, 0x89, 0x06, 0x06, 0x06 ; .. .....
  7BB4  DB 0x06, 0x06, 0x06, 0x06, 0x06, 0x06, 0x06, 0x06 ; ........
  7BBC  DB 0x06, 0x04, 0x02, 0x00, 0x0E, 0x0E, 0x0E, 0x0E ; ........
  7BC4  DB 0x0E, 0x0E, 0x0E, 0x0E, 0x0D, 0x0C, 0x0B, 0x8A ; ........
  7BCC  DB 0x20, 0x10, 0x89, 0x00, 0x02, 0x02, 0x02, 0x02 ;  .......
  7BD4  DB 0x02, 0x02, 0x02, 0x02, 0x02, 0x02, 0x02, 0x02 ; ........
  7BDC  DB 0x04, 0x06, 0x08, 0x0A, 0x0A, 0x0A, 0x0A, 0x0A ; ........
  7BE4  DB 0x0A, 0x0A, 0x0A, 0x0B, 0x0C, 0x0D, 0x8E, 0xDD ; ........
  7BEC  DB 0xCB, 0x00, 0x7E, 0x20, 0x52, 0x0E, 0x8E, 0xDD ; ..~ R...
  7BF4  DB 0x36, 0x0C, 0x01, 0xDD, 0x36, 0x09, 0x02, 0xDD ; 6...6...
  7BFC  DB 0x36, 0x1E, 0xC0, 0x11, 0x01, 0x40, 0x21, 0x07 ; 6....@!.
  7C04  DB 0xB0, 0xED, 0x5F, 0xE6, 0x01, 0x28, 0x01, 0xEB ; .._..(..
  7C0C  DB 0xCD, 0xDA, 0x71, 0x36, 0x7C, 0xDD, 0x72, 0x02 ; ..q6|.r.
  7C14  DB 0xDD, 0x36, 0x03, 0x74, 0xDD, 0x71, 0x04, 0xDD ; .6.t.q..
  7C1C  DB 0xCB, 0x00, 0xFE, 0xDD, 0x7E, 0x00, 0xD6, 0x92 ; ....~...
  7C24  DB 0x28, 0x0C, 0xDD, 0x73, 0x1D, 0x3C, 0x20, 0x17 ; (..s.< .
  7C2C  DB 0xDD, 0x72, 0x14, 0xC3, 0x43, 0x7C, 0xDD, 0x73 ; .r..C|.s
  7C34  DB 0x14, 0xCB, 0x0B, 0x3E, 0x03, 0x28, 0x02, 0x3E ; ...>.(.>
  7C3C  DB 0xFD, 0xDD, 0x77, 0x0B, 0xC3, 0xD8, 0x7C, 0xDD ; ..w...|.
  7C44  DB 0x6E, 0x1B, 0xDD, 0x66, 0x1C, 0xE5, 0xFD, 0xE1 ; n..f....
  7C4C  DB 0xDD, 0x46, 0x01, 0x78, 0xC6, 0x18, 0xDD, 0xA6 ; .F.x....
  7C54  DB 0x1E, 0xD6, 0x18, 0xB8, 0x28, 0x25, 0x78, 0xC6 ; ....(%x.
  7C5C  DB 0x10, 0xDD, 0xA6, 0x1E, 0xD6, 0x10, 0xB8, 0xC2 ; ........
  7C64  DB 0xAE, 0x79, 0xDD, 0x36, 0x03, 0x78, 0xFD, 0x36 ; .y.6.x.6
  7C6C  DB 0x03, 0x80, 0xCD, 0x96, 0x44, 0xDA, 0xAE, 0x79 ; ....D..y
  7C74  DB 0x3E, 0x26, 0xDD, 0x4E, 0x1D, 0xCD, 0xDB, 0x8D ; >&.N....
  7C7C  DB 0xC3, 0xAE, 0x79, 0xDD, 0x36, 0x03, 0x74, 0xFD ; ..y.6.t.
  7C84  DB 0x36, 0x03, 0x7C, 0xC3, 0xAE, 0x79, 0xDD, 0xCB ; 6.|..y..
  7C8C  DB 0x00, 0x7E, 0x20, 0xB3, 0xDD, 0x36, 0x17, 0x04 ; .~ ..6..
  7C94  DB 0xDD, 0x36, 0x0C, 0x13, 0xDD, 0x36, 0x09, 0x02 ; .6...6..
  7C9C  DB 0xDD, 0x36, 0x0B, 0xFC, 0xDD, 0x36, 0x16, 0x40 ; .6...6.@
  7CA4  DB 0xDD, 0x36, 0x1E, 0xE0, 0x0E, 0x8E, 0x11, 0x01 ; .6......
  7CAC  DB 0x30, 0x21, 0x07, 0xB0, 0xC3, 0x05, 0x7C, 0xDD ; 0!....|.
  7CB4  DB 0xCB, 0x00, 0x7E, 0x20, 0x1F, 0xDD, 0x36, 0x17 ; ..~ ..6.
  7CBC  DB 0x02, 0xDD, 0x36, 0x09, 0x02, 0xDD, 0x36, 0x16 ; ..6...6.
  7CC4  DB 0x0E, 0xDD, 0x36, 0x0C, 0x13, 0xDD, 0x36, 0x1D ; ..6...6.
  7CCC  DB 0x30, 0x0E, 0x8B, 0x11, 0xFF, 0x60, 0x21, 0x00 ; 0....`!.
  7CD4  DB 0x90, 0xC3, 0x05, 0x7C, 0xDD, 0x6E, 0x1B, 0xDD ; ...|.n..
  7CDC  DB 0x66, 0x1C, 0xE5, 0xFD, 0xE1, 0xDD, 0x35, 0x1D ; f.....5.
  7CE4  DB 0x20, 0x16, 0xDD, 0x36, 0x1D, 0x30, 0xDD, 0x36 ;  ..6.0.6
  7CEC  DB 0x03, 0x74, 0xFD, 0x36, 0x03, 0x7C, 0xCD, 0x96 ; .t.6.|..
  7CF4  DB 0x44, 0x38, 0x05, 0x3E, 0x25, 0xCD, 0xDB, 0x8D ; D8.>%...
  7CFC  DB 0xDD, 0x7E, 0x1D, 0xFE, 0x08, 0xC2, 0xAE, 0x79 ; .~.....y
  7D04  DB 0xDD, 0x36, 0x03, 0x78, 0xFD, 0x36, 0x03, 0x80 ; .6.x.6..
  7D0C  DB 0xC3, 0xAE, 0x79, 0xDD, 0xCB, 0x00, 0x7E, 0x20 ; ..y...~ 
  7D14  DB 0x37, 0x11, 0xFF, 0xC8, 0xED, 0x5F, 0xE6, 0x01 ; 7...._..
  7D1C  DB 0x28, 0x03, 0x11, 0x01, 0x28, 0xDD, 0x36, 0x0C ; (...(.6.
  7D24  DB 0x09, 0xDD, 0x36, 0x04, 0x83, 0xDD, 0x36, 0x1D ; ..6...6.
  7D2C  DB 0x50, 0xCD, 0xDA, 0x71, 0x36, 0x98, 0xDD, 0x73 ; P..q6..s
  7D34  DB 0x0B, 0xDD, 0x72, 0x02, 0xDD, 0x36, 0x17, 0x01 ; ..r..6..
  7D3C  DB 0xDD, 0x36, 0x09, 0x04, 0xDD, 0x36, 0x15, 0x14 ; .6...6..
  7D44  DB 0xDD, 0x36, 0x03, 0x84, 0xDD, 0xCB, 0x00, 0xFE ; .6......
  7D4C  DB 0xDD, 0x6E, 0x1B, 0xDD, 0x66, 0x1C, 0xE5, 0xFD ; .n..f...
  7D54  DB 0xE1, 0xDD, 0xCB, 0x05, 0x46, 0x20, 0x28, 0xDD ; ....F (.
  7D5C  DB 0x35, 0x1D, 0x20, 0x04, 0xDD, 0xCB, 0x05, 0xC6 ; 5. .....
  7D64  DB 0xDD, 0x7E, 0x1D, 0xFE, 0x40, 0x30, 0x18, 0x0F ; .~..@0..
  7D6C  DB 0x0F, 0x5F, 0xE6, 0x0C, 0xBB, 0x20, 0x10, 0x3E ; ._... .>
  7D74  DB 0x94, 0x93, 0xDD, 0x77, 0x03, 0xC6, 0x14, 0xFD ; ...w....
  7D7C  DB 0x77, 0x03, 0xFE, 0xA0, 0xCC, 0x8C, 0x7D, 0xCD ; w.....}.
  7D84  DB 0x98, 0x48, 0xCD, 0xF6, 0x71, 0xC3, 0xBA, 0x44 ; .H..q..D
  7D8C  DB 0xDD, 0x7E, 0x00, 0xCB, 0x3F, 0xFE, 0x4B, 0x20 ; .~..?.K 
  7D94  DB 0x16, 0xDD, 0x36, 0x17, 0x04, 0xCD, 0x91, 0x4C ; ..6....L
  7D9C  DB 0xCD, 0xF7, 0x4C, 0xDD, 0x36, 0x17, 0x01, 0xDD ; ..L.6...
  7DA4  DB 0x36, 0x15, 0x0C, 0xDD, 0xCB, 0x0C, 0xCE, 0xCD ; 6.......
  7DAC  DB 0x96, 0x44, 0xD8, 0x3E, 0x25, 0xC3, 0xDB, 0x8D ; .D.>%...
  7DB4  DB 0xDD, 0xCB, 0x00, 0x7E, 0xC2, 0x4C, 0x7D, 0xDD ; ...~.L}.
  7DBC  DB 0x36, 0x14, 0xFF, 0x11, 0xFD, 0xB8, 0xED, 0x5F ; 6......_
  7DC4  DB 0xE6, 0x01, 0x28, 0x07, 0xDD, 0x36, 0x14, 0x00 ; ..(..6..
  7DCC  DB 0x11, 0x03, 0x38, 0xDD, 0x36, 0x0C, 0x1B, 0xDD ; ..8.6...
  7DD4  DB 0x36, 0x16, 0x10, 0xDD, 0x36, 0x04, 0x89, 0xDD ; 6...6...
  7DDC  DB 0x36, 0x1D, 0x58, 0xC3, 0x2D, 0x7D, 0xDD, 0xCB ; 6.X.-}..
  7DE4  DB 0x00, 0x7E, 0x20, 0x57, 0x21, 0x25, 0xC8, 0x11 ; .~ W!%..
  7DEC  DB 0x40, 0xFF, 0x01, 0x68, 0x7E, 0x18, 0x0C, 0xDD ; @..h~...
  7DF4  DB 0xCB, 0x00, 0x7E, 0x20, 0x46, 0x21, 0x14, 0x28 ; ..~ F!.(
  7DFC  DB 0x11, 0xC0, 0x00, 0x01, 0x68, 0x7E, 0xDD, 0x36 ; ....h~.6
  7E04  DB 0x1E, 0x18, 0xDD, 0x75, 0x1D, 0xDD, 0x71, 0x11 ; ...u..q.
  7E0C  DB 0xDD, 0x70, 0x12, 0xDD, 0x74, 0x02, 0xDD, 0x73 ; .p..t..s
  7E14  DB 0x0A, 0xDD, 0x72, 0x0B, 0xCD, 0xDA, 0x71, 0xDD ; ..r...q.
  7E1C  DB 0x36, 0x08, 0x80, 0xDD, 0x36, 0x09, 0x02, 0xDD ; 6...6...
  7E24  DB 0x36, 0x17, 0x01, 0xDD, 0x36, 0x15, 0x07, 0xDD ; 6...6...
  7E2C  DB 0x36, 0x0C, 0x0F, 0xDD, 0x36, 0x10, 0x04, 0xDD ; 6...6...
  7E34  DB 0x36, 0x0D, 0x04, 0xDD, 0x36, 0x0E, 0x04, 0xDD ; 6...6...
  7E3C  DB 0xCB, 0x00, 0xFE, 0xDD, 0x35, 0x1E, 0x20, 0x11 ; ....5. .
  7E44  DB 0xDD, 0x36, 0x1E, 0x20, 0xCD, 0x96, 0x44, 0x38 ; .6. ..D8
  7E4C  DB 0x08, 0xDD, 0x7E, 0x1D, 0x0E, 0x04, 0xCD, 0xDB ; ..~.....
  7E54  DB 0x8D, 0xCD, 0x98, 0x48, 0xCD, 0xF6, 0x71, 0x11 ; ...H..q.
  7E5C  DB 0xEB, 0xFF, 0x19, 0xDD, 0x7E, 0x03, 0xC6, 0x10 ; ....~...
  7E64  DB 0x77, 0xC3, 0xBA, 0x44, 0xAC, 0x8E, 0xB0, 0x8E ; w..D....
  7E6C  DB 0xB4, 0x8E, 0xB8, 0x8E, 0xAC, 0x87, 0xB0, 0x87 ; ........
  7E74  DB 0xB4, 0x87, 0xB8, 0x87, 0xDD, 0xCB, 0x00, 0x7E ; .......~
  7E7C  DB 0x20, 0xC1, 0x21, 0x3B, 0xC0, 0x11, 0x00, 0xFE ;  .!;....
  7E84  DB 0x18, 0x0C, 0xDD, 0xCB, 0x00, 0x7E, 0x20, 0xB3 ; .....~ .
  7E8C  DB 0x21, 0x29, 0x30, 0x11, 0x00, 0x02, 0x01, 0x70 ; !)0....p
  7E94  DB 0x7E, 0xDD, 0x36, 0x1E, 0x04, 0xC3, 0x06, 0x7E ; ~.6....~
  7E9C  DB 0xDD, 0xCB, 0x00, 0x7E, 0xC2, 0x20, 0x7F, 0xCD ; ...~. ..
  7EA4  DB 0xDA, 0x71, 0xDD, 0x36, 0x0C, 0x01, 0xDD, 0x36 ; .q.6...6
  7EAC  DB 0x08, 0x80, 0xDD, 0x36, 0x09, 0x01, 0xDD, 0x36 ; ...6...6
  7EB4  DB 0x0A, 0x80, 0xDD, 0x36, 0x0B, 0x01, 0xDD, 0x36 ; ...6...6
  7EBC  DB 0x02, 0x30, 0xDD, 0x36, 0x03, 0xEC, 0xDD, 0x36 ; .0.6...6
  7EC4  DB 0x04, 0x8F, 0xDD, 0xCB, 0x05, 0xB6, 0xDD, 0x7E ; .......~
  7ECC  DB 0x00, 0xFE, 0x1E, 0x28, 0x10, 0xDD, 0xCB, 0x05 ; ...(....
  7ED4  DB 0xF6, 0xDD, 0x36, 0x08, 0x00, 0xDD, 0x36, 0x09 ; ..6...6.
  7EDC  DB 0xFF, 0xDD, 0x36, 0x01, 0xD0, 0x11, 0xFD, 0xFF ; ..6.....
  7EE4  DB 0x19, 0xE5, 0xFD, 0xE1, 0xEB, 0xDD, 0xE5, 0xE1 ; ........
  7EEC  DB 0x01, 0x0D, 0x00, 0xED, 0xB0, 0xFD, 0x36, 0x03 ; ......6.
  7EF4  DB 0xF0, 0xFD, 0x36, 0x02, 0xC0, 0xFD, 0x36, 0x0A ; ..6...6.
  7EFC  DB 0x80, 0xFD, 0x36, 0x0B, 0xFE, 0xDD, 0x7E, 0x00 ; ..6...~.
  7F04  DB 0x3C, 0xFD, 0x77, 0x00, 0xDD, 0xCB, 0x00, 0xFE ; <.w.....
  7F0C  DB 0xFE, 0x1F, 0xCA, 0x73, 0x7F, 0xDD, 0x36, 0x0A ; ...s..6.
  7F14  DB 0x00, 0xFD, 0x36, 0x0A, 0x00, 0xFD, 0x36, 0x0B ; ..6...6.
  7F1C  DB 0xFF, 0xC3, 0x73, 0x7F, 0xDD, 0xCB, 0x05, 0x7E ; ..s....~
  7F24  DB 0x20, 0x4D, 0xDD, 0x6E, 0x1B, 0xDD, 0x66, 0x1C ;  M.n..f.
  7F2C  DB 0xE5, 0xFD, 0xE1, 0xDD, 0x7E, 0x00, 0xE6, 0x7F ; ....~...
  7F34  DB 0x3C, 0xFD, 0xBE, 0x00, 0x20, 0x47, 0x3A, 0x01 ; <... G:.
  7F3C  DB 0xE3, 0xDD, 0xBE, 0x01, 0xDD, 0xCB, 0x05, 0x76 ; .......v
  7F44  DB 0x28, 0x01, 0x3F, 0x30, 0x08, 0xDD, 0x36, 0x0C ; (.?0..6.
  7F4C  DB 0x02, 0xFD, 0x36, 0x0C, 0x02, 0xFD, 0x7E, 0x02 ; ..6...~.
  7F54  DB 0xDD, 0x96, 0x02, 0xFE, 0x0B, 0x30, 0x18, 0xDD ; .....0..
  7F5C  DB 0xCB, 0x05, 0xFE, 0xDD, 0x36, 0x03, 0xF4, 0xFD ; ....6...
  7F64  DB 0x36, 0x00, 0x28, 0xDD, 0x7E, 0x02, 0xC6, 0x05 ; 6.(.~...
  7F6C  DB 0xDD, 0x77, 0x02, 0xDD, 0x36, 0x0C, 0x01, 0xDD ; .w..6...
  7F74  DB 0x7E, 0x04, 0xEE, 0x06, 0xDD, 0x77, 0x04, 0xCD ; ~....w..
  7F7C  DB 0x98, 0x48, 0xC3, 0xBA, 0x44, 0xDD, 0x34, 0x00 ; .H..D.4.
  7F84  DB 0x3A, 0x01, 0xE3, 0xDD, 0xBE, 0x01, 0xDD, 0xCB ; :.......
  7F8C  DB 0x05, 0x76, 0x28, 0x01, 0x3F, 0x30, 0xE0, 0xDD ; .v(.?0..
  7F94  DB 0x36, 0x0C, 0x02, 0x18, 0xDA, 0xDD, 0xCB, 0x00 ; 6.......
  7F9C  DB 0x7E, 0xC2, 0x12, 0x80, 0xCD, 0xDA, 0x71, 0x36 ; ~.....q6
  7FA4  DB 0xD0, 0xED, 0x5F, 0xE6, 0x06, 0x5F, 0x16, 0x00 ; .._.._..
  7FAC  DB 0x21, 0x7C, 0x80, 0x19, 0x7E, 0xDD, 0x36, 0x17 ; !|..~.6.
  7FB4  DB 0x01, 0xDD, 0x77, 0x02, 0x23, 0x5E, 0xCD, 0xF7 ; ..w.#^..
  7FBC  DB 0x4C, 0xDD, 0x36, 0x0C, 0x03, 0xDD, 0x36, 0x03 ; L.6...6.
  7FC4  DB 0xCC, 0xDD, 0x36, 0x04, 0x88, 0xDD, 0x36, 0x0D ; ..6...6.
  7FCC  DB 0x30, 0xDD, 0x36, 0x1D, 0x30, 0xDD, 0x36, 0x1E ; 0.6.0.6.
  7FD4  DB 0x03, 0xDD, 0x36, 0x1F, 0x26, 0xDD, 0x36, 0x19 ; ..6.&.6.
  7FDC  DB 0x07, 0xDD, 0xCB, 0x00, 0xFE, 0xDD, 0x7E, 0x00 ; ......~.
  7FE4  DB 0xFE, 0xA2, 0x28, 0x2A, 0xFE, 0xC1, 0x20, 0x16 ; ..(*.. .
  7FEC  DB 0xDD, 0x36, 0x04, 0x85, 0xDD, 0x36, 0x0D, 0x20 ; .6...6. 
  7FF4  DB 0xDD, 0x36, 0x1E, 0x01, 0xDD, 0x36, 0x1F, 0x14 ; .6...6..
  7FFC  DB 0xDD, 0x36, 0x19, 0x04, 0x18, 0x10, 0xDD, 0x36 ; .6.....6
  8004  DB 0x04, 0x8B, 0xDD, 0x36, 0x1E, 0x05, 0xDD, 0x36 ; ...6...6
  800C  DB 0x1F, 0x3B, 0xDD, 0xCB, 0x05, 0xC6, 0xDD, 0x35 ; .;.....5
  8014  DB 0x1D, 0x20, 0x5C, 0xDD, 0x7E, 0x0D, 0xDD, 0x77 ; . \.~..w
  801C  DB 0x1D, 0xDD, 0xCB, 0x05, 0x46, 0x28, 0x0E, 0x3E ; ....F(.>
  8024  DB 0x15, 0xCD, 0x89, 0x51, 0xCD, 0x91, 0x4C, 0x4B ; ...Q..LK
  802C  DB 0x21, 0x8A, 0x80, 0x18, 0x0E, 0x3A, 0x01, 0xE3 ; !....:..
  8034  DB 0xDD, 0xBE, 0x01, 0x21, 0x87, 0x80, 0x30, 0x03 ; ...!..0.
  803C  DB 0x21, 0x84, 0x80, 0xDD, 0x46, 0x1E, 0xD9, 0xCD ; !...F...
  8044  DB 0x96, 0x44, 0x38, 0x2B, 0xD9, 0x7E, 0x23, 0xD9 ; .D8+.~#.
  804C  DB 0xDD, 0x56, 0x1F, 0x72, 0x23, 0xDD, 0x5E, 0x01 ; .V.r#.^.
  8054  DB 0xDD, 0x56, 0x02, 0xDD, 0xCB, 0x05, 0x46, 0x28 ; .V....F(
  805C  DB 0x0B, 0x83, 0x5F, 0xD9, 0x7E, 0x23, 0xD9, 0x82 ; .._.~#..
  8064  DB 0x57, 0xD9, 0x79, 0xD9, 0x73, 0x23, 0x72, 0x11 ; W.y.s#r.
  806C  DB 0x18, 0x00, 0x19, 0x77, 0xD9, 0x10, 0xCF, 0xCD ; ...w....
  8074  DB 0x98, 0x48, 0xCD, 0xF6, 0x71, 0xC3, 0xA7, 0x82 ; .H..q...
  807C  DB 0x20, 0x02, 0xD0, 0x06, 0x50, 0x04, 0xA0, 0x04 ;  ...P...
  8084  DB 0x0C, 0x0A, 0x0E, 0x04, 0x02, 0x06, 0x18, 0x00 ; ........
  808C  DB 0x00, 0xE8, 0x00, 0x18, 0xE8, 0x00, 0x00, 0x00 ; ........
  8094  DB 0xDD, 0xCB, 0x00, 0x7E, 0x20, 0x5E, 0xDD, 0x7E ; ...~ ^.~
  809C  DB 0x00, 0xD6, 0x2E, 0xE6, 0xFE, 0x87, 0x4F, 0x06 ; ......O.
  80A4  DB 0x00, 0x21, 0x89, 0x81, 0x09, 0x06, 0x30, 0x11 ; .!....0.
  80AC  DB 0x01, 0x00, 0xED, 0x5F, 0xE6, 0x01, 0x28, 0x05 ; ..._..(.
  80B4  DB 0x06, 0xC0, 0x11, 0xFF, 0x08, 0xDD, 0x70, 0x02 ; ......p.
  80BC  DB 0xDD, 0x36, 0x0C, 0x01, 0xDD, 0x36, 0x08, 0x50 ; .6...6.P
  80C4  DB 0xDD, 0x36, 0x09, 0x01, 0xDD, 0x36, 0x03, 0x48 ; .6...6.H
  80CC  DB 0x7E, 0xDD, 0x77, 0x05, 0xCB, 0x6F, 0x28, 0x03 ; ~.w..o(.
  80D4  DB 0x43, 0x16, 0x0C, 0xDD, 0x72, 0x1D, 0xDD, 0x70 ; C...r..p
  80DC  DB 0x17, 0x23, 0x7E, 0xDD, 0x77, 0x04, 0x23, 0x7E ; .#~.w.#~
  80E4  DB 0xDD, 0x77, 0x1E, 0xDD, 0x77, 0x18, 0x23, 0x7E ; .w..w.#~
  80EC  DB 0xDD, 0x77, 0x1F, 0xCD, 0xDA, 0x71, 0x36, 0x50 ; .w...q6P
  80F4  DB 0xDD, 0xCB, 0x00, 0xFE, 0xDD, 0xCB, 0x05, 0x76 ; .......v
  80FC  DB 0x28, 0x1F, 0x3A, 0x01, 0xE3, 0xDD, 0xBE, 0x01 ; (.:.....
  8104  DB 0xDD, 0xCB, 0x05, 0x7E, 0x28, 0x08, 0x38, 0x58 ; ...~(.8X
  810C  DB 0xDD, 0xCB, 0x05, 0xBE, 0x18, 0x52, 0x30, 0x50 ; .....R0P
  8114  DB 0xCD, 0x6D, 0x81, 0xDD, 0xCB, 0x05, 0xFE, 0x18 ; .m......
  811C  DB 0x47, 0xDD, 0x35, 0x18, 0x20, 0x42, 0xDD, 0x7E ; G.5. B.~
  8124  DB 0x1E, 0xDD, 0x77, 0x18, 0xDD, 0x7E, 0x1D, 0xDD ; ..w..~..
  812C  DB 0x86, 0x17, 0xE6, 0x0F, 0xDD, 0x77, 0x1D, 0xCD ; .....w..
  8134  DB 0x6D, 0x81, 0xDD, 0xCB, 0x05, 0x6E, 0x28, 0x28 ; m....n((
  813C  DB 0xDD, 0x7E, 0x1D, 0xFE, 0x04, 0x28, 0x0A, 0xDD ; .~...(..
  8144  DB 0x36, 0x18, 0x01, 0xDD, 0x36, 0x0C, 0x00, 0x18 ; 6...6...
  814C  DB 0x17, 0xDD, 0x36, 0x1D, 0x0C, 0xDD, 0x36, 0x0C ; ..6...6.
  8154  DB 0x01, 0xDD, 0x36, 0x03, 0x48, 0xDD, 0x6E, 0x1B ; ..6.H.n.
  815C  DB 0xDD, 0x66, 0x1C, 0x23, 0x23, 0x23, 0x36, 0x50 ; .f.###6P
  8164  DB 0xCD, 0x98, 0x48, 0xCD, 0xF6, 0x71, 0xC3, 0xBA ; ..H..q..
  816C  DB 0x44, 0xDD, 0x36, 0x03, 0x4C, 0xDD, 0x6E, 0x1B ; D.6.L.n.
  8174  DB 0xDD, 0x66, 0x1C, 0x23, 0x23, 0x23, 0x36, 0x54 ; .f.###6T
  817C  DB 0xCD, 0x96, 0x44, 0xD8, 0xDD, 0x7E, 0x1F, 0xDD ; ..D..~..
  8184  DB 0x4E, 0x1D, 0xC3, 0xDB, 0x8D, 0x00, 0x8F, 0x20 ; N...... 
  818C  DB 0x26, 0x40, 0x8D, 0x00, 0x15, 0x20, 0x8A, 0x50 ; &@... .P
  8194  DB 0x26, 0x00, 0x89, 0x20, 0x15, 0x20, 0x87, 0x2E ; &.. . ..
  819C  DB 0x15, 0xDD, 0xCB, 0x00, 0x7E, 0x20, 0x20, 0xCD ; ....~  .
  81A4  DB 0xC5, 0x71, 0x1E, 0x04, 0xDD, 0x36, 0x03, 0x70 ; .q...6.p
  81AC  DB 0xDD, 0x36, 0x17, 0x05, 0xCD, 0xF7, 0x4C, 0xDD ; .6....L.
  81B4  DB 0x36, 0x0C, 0x03, 0xDD, 0x36, 0x04, 0x8F, 0xDD ; 6...6...
  81BC  DB 0x36, 0x1F, 0x20, 0xDD, 0xCB, 0x00, 0xFE, 0xDD ; 6. .....
  81C4  DB 0x7E, 0x04, 0xEE, 0x09, 0xDD, 0x77, 0x04, 0xCD ; ~....w..
  81CC  DB 0x98, 0x48, 0xC3, 0xBA, 0x44, 0xDD, 0xCB, 0x00 ; .H..D...
  81D4  DB 0x7E, 0x20, 0x0F, 0xCD, 0xDA, 0x71, 0xCD, 0xC5 ; ~ ...q..
  81DC  DB 0x71, 0xDD, 0x36, 0x03, 0x6C, 0x1E, 0x04, 0xC3 ; q.6.l...
  81E4  DB 0xAC, 0x81, 0xDD, 0x6E, 0x1B, 0xDD, 0x66, 0x1C ; ...n..f.
  81EC  DB 0x11, 0x18, 0x00, 0x19, 0x36, 0x02, 0xDD, 0x7E ; ....6..~
  81F4  DB 0x00, 0xFE, 0xB9, 0x28, 0x09, 0xDD, 0x6E, 0x1D ; ...(..n.
  81FC  DB 0xDD, 0x66, 0x1E, 0x19, 0x36, 0x02, 0xDD, 0x35 ; .f..6..5
  8204  DB 0x1F, 0x20, 0xBC, 0x3E, 0x15, 0xCD, 0x89, 0x51 ; . .>...Q
  820C  DB 0xCD, 0x91, 0x4C, 0x7B, 0xDD, 0x36, 0x00, 0x3B ; ..L{.6.;
  8214  DB 0x1D, 0xDD, 0x73, 0x1A, 0xDD, 0x6E, 0x1B, 0xDD ; ..s..n..
  821C  DB 0x66, 0x1C, 0x36, 0x3B, 0x23, 0xDD, 0x5E, 0x01 ; f.6;#.^.
  8224  DB 0x73, 0x23, 0xDD, 0x56, 0x02, 0x72, 0x01, 0x18 ; s#.V.r..
  822C  DB 0x00, 0x09, 0x3C, 0x77, 0xDD, 0x7E, 0x03, 0xFE ; ..<w.~..
  8234  DB 0x6C, 0xC8, 0x7E, 0xDD, 0x6E, 0x1D, 0xDD, 0x66 ; l.~.n..f
  823C  DB 0x1E, 0x36, 0x3B, 0x23, 0x73, 0x23, 0x72, 0x09 ; .6;#s#r.
  8244  DB 0x3D, 0x77, 0xC9, 0xDD, 0xCB, 0x00, 0x7E, 0x20 ; =w....~ 
  824C  DB 0x99, 0xCD, 0xDA, 0x71, 0x11, 0xFD, 0xFF, 0x19 ; ...q....
  8254  DB 0xDD, 0x75, 0x1D, 0xDD, 0x74, 0x1E, 0xCD, 0xDA ; .u..t...
  825C  DB 0x71, 0xCD, 0xC5, 0x71, 0xDD, 0x36, 0x03, 0x68 ; q..q.6.h
  8264  DB 0x1E, 0x04, 0xC3, 0xAC, 0x81, 0xDD, 0xCB, 0x00 ; ........
  826C  DB 0x7E, 0xC2, 0xC3, 0x81, 0xDD, 0x7E, 0x1A, 0xE6 ; ~....~..
  8274  DB 0x0F, 0x5F, 0xC3, 0xA8, 0x81, 0x3A, 0x30, 0xE1 ; ._...:0.
  827C  DB 0xCB, 0x3F, 0x5F, 0xED, 0x5F, 0xE6, 0x03, 0x83 ; .?_._...
  8284  DB 0xFE, 0x60, 0x38, 0x02, 0x3E, 0x5F, 0x5F, 0x16 ; .`8.>__.
  828C  DB 0x00, 0x21, 0xCC, 0xBE, 0x19, 0x7E, 0xDD, 0x77 ; .!...~.w
  8294  DB 0x00, 0xC9, 0xDD, 0xCB, 0x00, 0x7E, 0x28, 0x17 ; .....~(.
  829C  DB 0xDD, 0x7E, 0x04, 0xEE, 0x0E, 0xDD, 0x77, 0x04 ; .~....w.
  82A4  DB 0xCD, 0x98, 0x48, 0xDD, 0xCB, 0x00, 0x7E, 0xC8 ; ..H...~.
  82AC  DB 0xCD, 0xBA, 0x44, 0xCD, 0x04, 0x79, 0xC9, 0xCD ; ..D..y..
  82B4  DB 0xC5, 0x71, 0xDD, 0x36, 0x0C, 0x01, 0xDD, 0x36 ; .q.6...6
  82BC  DB 0x08, 0x80, 0xDD, 0x36, 0x03, 0x34, 0xDD, 0x36 ; ...6.4.6
  82C4  DB 0x04, 0x8F, 0xDD, 0x36, 0x19, 0x10, 0xDD, 0xCB ; ...6....
  82CC  DB 0x00, 0xFE, 0x18, 0xCC, 0xDD, 0xCB, 0x00, 0x7E ; .......~
  82D4  DB 0x20, 0x23, 0xCD, 0xDA, 0x71, 0x36, 0x44, 0xCD ;  #..q6D.
  82DC  DB 0xC5, 0x71, 0xED, 0x5F, 0xE6, 0x03, 0x3C, 0xDD ; .q._..<.
  82E4  DB 0x77, 0x17, 0xCD, 0x8B, 0x4C, 0xDD, 0x36, 0x0C ; w...L.6.
  82EC  DB 0x03, 0xDD, 0x36, 0x03, 0x40, 0xDD, 0x36, 0x04 ; ..6.@.6.
  82F4  DB 0x83, 0xDD, 0xCB, 0x00, 0xFE, 0xCD, 0x98, 0x48 ; .......H
  82FC  DB 0xCD, 0xF6, 0x71, 0xC3, 0xBA, 0x44, 0xDD, 0xCB ; ..q..D..
  8304  DB 0x00, 0x7E, 0x20, 0x42, 0x3A, 0x02, 0xE3, 0xFE ; .~ B:...
  830C  DB 0x78, 0x16, 0x40, 0x30, 0x02, 0x16, 0xB0, 0xCD ; x.@0....
  8314  DB 0xDA, 0x71, 0x36, 0xFC, 0xDD, 0x72, 0x02, 0xDD ; .q6..r..
  831C  DB 0x36, 0x09, 0x02, 0xDD, 0x36, 0x0C, 0x01, 0xDD ; 6...6...
  8324  DB 0x36, 0x03, 0xF8, 0x21, 0x49, 0xE1, 0x7E, 0x34 ; 6..!I.~4
  832C  DB 0xE6, 0x07, 0xDD, 0x77, 0x1D, 0x6F, 0x26, 0x00 ; ...w.o&.
  8334  DB 0x11, 0xAF, 0x8E, 0x19, 0x7E, 0xDD, 0x36, 0x1E ; ....~.6.
  833C  DB 0x20, 0xDD, 0xCB, 0x00, 0xFE, 0xFE, 0x81, 0x20 ;  ...... 
  8344  DB 0x02, 0x3E, 0x8F, 0xDD, 0x77, 0x04, 0xDD, 0x7E ; .>..w..~
  834C  DB 0x01, 0xFE, 0x60, 0x20, 0x11, 0xDD, 0x36, 0x0C ; ..` ..6.
  8354  DB 0x00, 0xDD, 0x35, 0x1E, 0x20, 0x08, 0xDD, 0x36 ; ..5. ..6
  835C  DB 0x0C, 0x01, 0xDD, 0x36, 0x09, 0xFC, 0xCD, 0x98 ; ...6....
  8364  DB 0x48, 0xCD, 0xF6, 0x71, 0xCD, 0xBA, 0x44, 0xDD ; H..q..D.
  836C  DB 0x7E, 0x00, 0xFE, 0x23, 0xC0, 0xCD, 0xB3, 0xBF ; ~..#....
  8374  DB 0x3A, 0x40, 0xE1, 0xE6, 0x3F, 0x47, 0x3A, 0x03 ; :@..?G:.
  837C  DB 0xE1, 0xE6, 0x3F, 0xB8, 0x20, 0x08, 0xCD, 0x6A ; ..?. ..j
  8384  DB 0x4A, 0xDD, 0x36, 0x00, 0x3E, 0xC9, 0x21, 0x48 ; J.6.>.!H
  838C  DB 0xE1, 0x7E, 0xFE, 0x05, 0xD8, 0xCD, 0x6A, 0x4A ; .~....jJ
  8394  DB 0xDD, 0x36, 0x00, 0x53, 0xDD, 0x7E, 0x1D, 0xDD ; .6.S.~..
  839C  DB 0x77, 0x1C, 0xC9, 0xDD, 0xCB, 0x00, 0x7E, 0x20 ; w.....~ 
  83A4  DB 0x33, 0xCD, 0xC0, 0x43, 0x7D, 0xE6, 0x7F, 0xC6 ; 3..C}...
  83AC  DB 0x10, 0xDD, 0x77, 0x01, 0x7C, 0xE6, 0x7F, 0xC6 ; ..w.|...
  83B4  DB 0x40, 0xDD, 0x77, 0x02, 0xDD, 0x36, 0x04, 0x86 ; @.w..6..
  83BC  DB 0xDD, 0x36, 0x03, 0x20, 0xDD, 0x36, 0x0C, 0x03 ; .6. .6..
  83C4  DB 0xDD, 0x36, 0x19, 0x05, 0xDD, 0x36, 0x17, 0x03 ; .6...6..
  83CC  DB 0xDD, 0x36, 0x1B, 0x78, 0xDD, 0x36, 0x1C, 0x1E ; .6.x.6..
  83D4  DB 0xDD, 0xCB, 0x00, 0xFE, 0xDD, 0x7E, 0x03, 0xEE ; .....~..
  83DC  DB 0x34, 0xDD, 0x77, 0x03, 0xDD, 0x7E, 0x04, 0xEE ; 4.w..~..
  83E4  DB 0x0C, 0xDD, 0x77, 0x04, 0xDD, 0x35, 0x1B, 0xCA ; ..w..5..
  83EC  DB 0xF7, 0x83, 0xDD, 0xCB, 0x05, 0x46, 0xCA, 0xB8 ; .....F..
  83F4  DB 0x48, 0x18, 0x26, 0xDD, 0xCB, 0x05, 0xC6, 0xDD ; H.&.....
  83FC  DB 0x35, 0x1C, 0x20, 0x04, 0xDD, 0xCB, 0x05, 0xCE ; 5. .....
  8404  DB 0xDD, 0xCB, 0x05, 0x4E, 0x20, 0x13, 0xDD, 0x36 ; ...N ..6
  840C  DB 0x04, 0x8D, 0xED, 0x5F, 0xE6, 0x1E, 0xC6, 0x32 ; ..._...2
  8414  DB 0xDD, 0x77, 0x1B, 0xCD, 0x91, 0x4C, 0xCD, 0xF7 ; .w...L..
  841C  DB 0x4C, 0xCD, 0xBA, 0x44, 0xDD, 0xCB, 0x00, 0x7E ; L..D...~
  8424  DB 0xC2, 0x98, 0x48, 0xFD, 0xE5, 0xE1, 0x11, 0x80 ; ..H.....
  842C  DB 0xE3, 0xA7, 0xED, 0x52, 0x28, 0x09, 0xDD, 0x35 ; ...R(..5
  8434  DB 0x19, 0xC8, 0x3E, 0x14, 0xCD, 0x89, 0x51, 0xDD ; ..>...Q.
  843C  DB 0x7E, 0x18, 0xF6, 0x80, 0xDD, 0x77, 0x00, 0xC3 ; ~....w..
  8444  DB 0xB8, 0x48, 0xDD, 0xCB, 0x00, 0x7E, 0xC2, 0xC9 ; .H...~..
  844C  DB 0x84, 0x21, 0x2F, 0xE1, 0x3E, 0x10, 0x86, 0x77 ; .!/.>..w
  8454  DB 0xDC, 0xAB, 0xBF, 0x3A, 0x42, 0xE1, 0xFE, 0x11 ; ...:B...
  845C  DB 0x38, 0x04, 0x3E, 0x01, 0x18, 0x11, 0x3C, 0x4F ; 8.>...<O
  8464  DB 0x06, 0x00, 0x21, 0x61, 0x77, 0x09, 0x7E, 0x21 ; ..!aw.~!
  846C  DB 0x31, 0xE1, 0x86, 0x77, 0xDC, 0xC8, 0xBF, 0x3A ; 1..w...:
  8474  DB 0x41, 0xE1, 0xFE, 0x08, 0x30, 0x08, 0x87, 0x87 ; A...0...
  847C  DB 0x4F, 0x3E, 0x24, 0x91, 0x18, 0x02, 0x3E, 0x01 ; O>$...>.
  8484  DB 0x21, 0x31, 0xE1, 0x86, 0x77, 0xDC, 0xC8, 0xBF ; !1..w...
  848C  DB 0x97, 0x32, 0x42, 0xE1, 0x32, 0x41, 0xE1, 0x3E ; .2B.2A.>
  8494  DB 0x11, 0xCD, 0x89, 0x51, 0xDD, 0x36, 0x00, 0xA3 ; ...Q.6..
  849C  DB 0xCD, 0x6A, 0x4A, 0xDD, 0xCB, 0x0C, 0xD6, 0xDD ; .jJ.....
  84A4  DB 0x36, 0x0D, 0x01, 0xDD, 0x36, 0x0E, 0x04, 0xDD ; 6...6...
  84AC  DB 0x36, 0x0F, 0x01, 0xDD, 0x36, 0x10, 0x06, 0x11 ; 6...6...
  84B4  DB 0xD1, 0x84, 0xDD, 0x73, 0x11, 0xDD, 0x72, 0x12 ; ...s..r.
  84BC  DB 0x21, 0x24, 0xE1, 0x35, 0x20, 0x07, 0x36, 0x10 ; !$.5 .6.
  84C4  DB 0x3E, 0x01, 0x32, 0x25, 0xE1, 0xDD, 0x7E, 0x0F ; >.2%..~.
  84CC  DB 0xA7, 0xC2, 0x98, 0x48, 0xC3, 0xD0, 0x48, 0x1C ; ...H..H.
  84D4  DB 0x8A, 0x20, 0x8E, 0x24, 0x8F, 0x20, 0x8D, 0x1C ; . .$. ..
  84DC  DB 0x89, 0xDD, 0xCB, 0x00, 0x7E, 0x20, 0x18, 0xDD ; ....~ ..
  84E4  DB 0x36, 0x17, 0x03, 0xDD, 0x36, 0x03, 0x1C, 0xDD ; 6...6...
  84EC  DB 0x36, 0x04, 0x8F, 0xDD, 0x36, 0x0C, 0x03, 0xCD ; 6...6...
  84F4  DB 0x8B, 0x4C, 0xDD, 0xCB, 0x00, 0xFE, 0xC9, 0xCD ; .L......
  84FC  DB 0x98, 0x48, 0xC3, 0xA6, 0x44, 0xDD, 0xCB, 0x00 ; .H..D...
  8504  DB 0x7E, 0x20, 0xF4, 0xDD, 0x36, 0x17, 0x03, 0xDD ; ~ ..6...
  850C  DB 0x36, 0x0C, 0x03, 0xDD, 0x36, 0x03, 0x1C, 0xDD ; 6...6...
  8514  DB 0x36, 0x04, 0x8F, 0xDD, 0x7E, 0x1A, 0xE6, 0x0F ; 6...~...
  851C  DB 0x5F, 0xCD, 0xF7, 0x4C, 0xDD, 0xCB, 0x00, 0xFE ; _..L....
  8524  DB 0xC9, 0xDD, 0x35, 0x18, 0xC0, 0xC3, 0xD0, 0x48 ; ..5....H
  852C  DB 0xC3, 0xD0, 0x48, 0xDD, 0xCB, 0x00, 0x7E, 0x20 ; ..H...~ 
  8534  DB 0x4A, 0xDD, 0x36, 0x03, 0x1C, 0xDD, 0x36, 0x04 ; J.6...6.
  853C  DB 0x8F, 0xDD, 0x36, 0x17, 0x02, 0xDD, 0x36, 0x0C ; ..6...6.
  8544  DB 0x03, 0xDD, 0x7E, 0x1A, 0xE6, 0x0F, 0x5F, 0xDD ; ..~..._.
  854C  DB 0xCB, 0x1A, 0x66, 0x28, 0x04, 0xC6, 0xFC, 0x18 ; ..f(....
  8554  DB 0x02, 0xC6, 0x04, 0xE6, 0x0F, 0xDD, 0x77, 0x1B ; ......w.
  855C  DB 0xCD, 0xF7, 0x4C, 0xDD, 0xE5, 0xE1, 0x5D, 0x54 ; ..L...]T
  8564  DB 0x01, 0x1C, 0x00, 0x09, 0xEB, 0x01, 0x08, 0x00 ; ........
  856C  DB 0x09, 0x01, 0x04, 0x00, 0xED, 0xB0, 0xDD, 0xCB ; ........
  8574  DB 0x00, 0xFE, 0xDD, 0x36, 0x15, 0x02, 0xDD, 0x36 ; ...6...6
  857C  DB 0x17, 0x04, 0xC9, 0xDD, 0x35, 0x15, 0x20, 0x12 ; ....5. .
  8584  DB 0xDD, 0x36, 0x15, 0x02, 0xDD, 0xCB, 0x1A, 0x66 ; .6.....f
  858C  DB 0x28, 0x05, 0xDD, 0x35, 0x1B, 0x18, 0x03, 0xDD ; (..5....
  8594  DB 0x34, 0x1B, 0xDD, 0x7E, 0x1B, 0xE6, 0x0F, 0x5F ; 4..~..._
  859C  DB 0xCD, 0xF7, 0x4C, 0xDD, 0xE5, 0xE1, 0x01, 0x08 ; ..L.....
  85A4  DB 0x00, 0x09, 0x5E, 0x23, 0x56, 0x2B, 0xEB, 0xDD ; ..^#V+..
  85AC  DB 0x4E, 0x1C, 0xDD, 0x46, 0x1D, 0x09, 0xEB, 0x73 ; N..F...s
  85B4  DB 0x23, 0x72, 0x23, 0x5E, 0x23, 0x56, 0xEB, 0xDD ; #r#^#V..
  85BC  DB 0x4E, 0x1E, 0xDD, 0x46, 0x1F, 0x09, 0xEB, 0x72 ; N..F...r
  85C4  DB 0x2B, 0x73, 0xCD, 0x98, 0x48, 0xC3, 0xA6, 0x44 ; +s..H..D
  85CC  DB 0xCD, 0xE3, 0x84, 0xDD, 0x36, 0x00, 0xA5, 0xC3 ; ....6...
  85D4  DB 0xDD, 0x85, 0xCD, 0x07, 0x85, 0xDD, 0x36, 0x00 ; ......6.
  85DC  DB 0xA6, 0xED, 0x5F, 0xDD, 0xAE, 0x0A, 0xDD, 0x77 ; .._....w
  85E4  DB 0x0A, 0xED, 0x5F, 0xDD, 0xAE, 0x08, 0xDD, 0x77 ; .._....w
  85EC  DB 0x08, 0xC9, 0xDD, 0xCB, 0x00, 0x7E, 0x20, 0x14 ; .....~ .
  85F4  DB 0xED, 0x5F, 0xE6, 0x01, 0xC6, 0x02, 0xDD, 0x77 ; ._.....w
  85FC  DB 0x17, 0xCD, 0x0B, 0x85, 0xDD, 0x36, 0x19, 0x03 ; .....6..
  8604  DB 0xDD, 0x36, 0x1C, 0x28, 0xDD, 0x35, 0x1C, 0x20 ; .6.(.5. 
  860C  DB 0x18, 0xED, 0x5F, 0xCB, 0x47, 0x28, 0xF1, 0xE6 ; .._.G(..
  8614  DB 0x08, 0xDD, 0x86, 0x1A, 0xD6, 0x04, 0xDD, 0x77 ; .......w
  861C  DB 0x1A, 0xE6, 0x0F, 0x5F, 0xCD, 0xF7, 0x4C, 0x18 ; ..._..L.
  8624  DB 0xDF, 0xDD, 0x7E, 0x1C, 0xE6, 0x01, 0x87, 0x87 ; ..~.....
  862C  DB 0x87, 0xC6, 0x18, 0xDD, 0x77, 0x03, 0xC3, 0xA4 ; ....w...
  8634  DB 0x82, 0xDD, 0xCB, 0x00, 0x7E, 0x20, 0x1E, 0xDD ; ....~ ..
  863C  DB 0x36, 0x17, 0x04, 0xDD, 0x36, 0x03, 0x18, 0xDD ; 6...6...
  8644  DB 0x7E, 0x1A, 0xE6, 0x0F, 0x5F, 0xCD, 0xF7, 0x4C ; ~..._..L
  864C  DB 0xDD, 0x36, 0x0C, 0x03, 0xDD, 0xCB, 0x00, 0xFE ; .6......
  8654  DB 0x3E, 0x16, 0xC3, 0x89, 0x51, 0xED, 0x5F, 0xE6 ; >...Q._.
  865C  DB 0x0F, 0xF6, 0x80, 0xDD, 0x77, 0x04, 0xCD, 0x98 ; ....w...
  8664  DB 0x48, 0xC3, 0xBA, 0x44, 0xDD, 0xCB, 0x00, 0x7E ; H..D...~
  866C  DB 0x20, 0x2A, 0xDD, 0x36, 0x03, 0x1C, 0xDD, 0x36 ;  *.6...6
  8674  DB 0x04, 0x8F, 0xDD, 0x36, 0x0C, 0x0B, 0xDD, 0x36 ; ...6...6
  867C  DB 0x13, 0xFF, 0xDD, 0x36, 0x15, 0x0C, 0xDD, 0x36 ; ...6...6
  8684  DB 0x17, 0x01, 0xCD, 0xC0, 0x43, 0x7C, 0xE6, 0x03 ; ....C|..
  868C  DB 0xD6, 0x02, 0xDD, 0x77, 0x0B, 0xDD, 0x75, 0x0A ; ...w..u.
  8694  DB 0xDD, 0xCB, 0x00, 0xFE, 0xCD, 0x98, 0x48, 0xC3 ; ......H.
  869C  DB 0xA6, 0x44, 0xDD, 0xCB, 0x00, 0x7E, 0x20, 0x40 ; .D...~ @
  86A4  DB 0xDD, 0xCB, 0x05, 0x7E, 0x28, 0x07, 0xDD, 0x36 ; ...~(..6
  86AC  DB 0x00, 0x81, 0xC3, 0x12, 0x76, 0xCD, 0x44, 0x75 ; ....v.Du
  86B4  DB 0x21, 0x32, 0xE1, 0xCB, 0x3E, 0x21, 0x2E, 0xE1 ; !2..>!..
  86BC  DB 0xCB, 0x3E, 0x3E, 0x10, 0xCD, 0x89, 0x51, 0xDD ; .>>...Q.
  86C4  DB 0x36, 0x0F, 0x01, 0xDD, 0x36, 0x10, 0x0B, 0xDD ; 6...6...
  86CC  DB 0x36, 0x0D, 0x04, 0xDD, 0x36, 0x0E, 0x04, 0x11 ; 6...6...
  86D4  DB 0xF3, 0x86, 0xDD, 0x73, 0x11, 0xDD, 0x72, 0x12 ; ...s..r.
  86DC  DB 0xDD, 0x36, 0x0C, 0x04, 0xDD, 0xCB, 0x00, 0xFE ; .6......
  86E4  DB 0xDD, 0x7E, 0x0F, 0xA7, 0xC2, 0x98, 0x48, 0x21 ; .~....H!
  86EC  DB 0x02, 0xE1, 0xCB, 0xC6, 0x97, 0xDD, 0x77, 0x00 ; ......w.
  86F4  DB 0xC9, 0x1C, 0x86, 0x1C, 0x8F, 0x20, 0x88, 0x20 ; ..... . 
  86FC  DB 0x8F, 0x24, 0x89, 0x24, 0x8F, 0x20, 0x88, 0x20 ; .$.$. . 
  8704  DB 0x89, 0x1C, 0x86, 0x1C, 0x8F, 0xDD, 0xCB, 0x00 ; ........
  870C  DB 0x7E, 0x20, 0x19, 0xDD, 0x36, 0x09, 0xFF, 0xDD ; ~ ..6...
  8714  DB 0x36, 0x08, 0x80, 0xDD, 0x36, 0x03, 0x00, 0xDD ; 6...6...
  871C  DB 0x36, 0x04, 0x87, 0xDD, 0x36, 0x0C, 0x01, 0xDD ; 6...6...
  8724  DB 0xCB, 0x00, 0xFE, 0xC9, 0xDD, 0x7E, 0x0D, 0xDD ; .....~..
  872C  DB 0x34, 0x0D, 0x47, 0xE6, 0x0F, 0x20, 0x17, 0x78 ; 4.G.. .x
  8734  DB 0xE6, 0x10, 0x87, 0x5F, 0x16, 0x00, 0x21, 0x6B ; ..._..!k
  873C  DB 0x87, 0x19, 0x11, 0x00, 0x18, 0x01, 0x20, 0x00 ; ...... .
  8744  DB 0xCD, 0xED, 0x42, 0xCD, 0x5C, 0x00, 0xCD, 0x98 ; ..B.\...
  874C  DB 0x48, 0xDD, 0xCB, 0x00, 0x7E, 0xC8, 0xCD, 0xB0 ; H...~...
  8754  DB 0x44, 0xDD, 0xCB, 0x00, 0x7E, 0xC0, 0x3E, 0x81 ; D...~.>.
  875C  DB 0x32, 0x00, 0xE3, 0x21, 0x0A, 0xE1, 0x34, 0x3E ; 2..!..4>
  8764  DB 0x08, 0xCD, 0x89, 0x51, 0xC3, 0x4D, 0x4C, 0x07 ; ...Q.ML.
  876C  DB 0x1F, 0x3F, 0x7F, 0x43, 0x81, 0xE1, 0xE1, 0x81 ; .?.C....
  8774  DB 0x43, 0x7F, 0x30, 0x1C, 0x17, 0xD0, 0x38, 0xC0 ; C.0...8.
  877C  DB 0xF0, 0xF8, 0xFC, 0x84, 0x02, 0xC2, 0xC2, 0x02 ; ........
  8784  DB 0x84, 0xFC, 0x18, 0x70, 0xD0, 0x16, 0x38, 0x07 ; ...p..8.
  878C  DB 0x1F, 0x3F, 0x7F, 0x43, 0x81, 0x87, 0x87, 0x81 ; .?.C....
  8794  DB 0x43, 0x7F, 0x30, 0x9F, 0xA7, 0x40, 0x20, 0xC0 ; C.0..@ .
  879C  DB 0xF0, 0xF8, 0xFC, 0x84, 0x02, 0x0E, 0x0E, 0x02 ; ........
  87A4  DB 0x84, 0xFC, 0x18, 0xF2, 0xCA, 0x04, 0x08, 0xCD ; ........
  87AC  DB 0x25, 0x8F, 0x38, 0x56, 0xDD, 0x7E, 0x03, 0x4F ; %.8V.~.O
  87B4  DB 0x06, 0x00, 0x2A, 0x20, 0xE7, 0x09, 0x7E, 0xDD ; ..* ..~.
  87BC  DB 0x77, 0x1C, 0x23, 0x7E, 0xDD, 0x77, 0x1D, 0xDD ; w.#~.w..
  87C4  DB 0x36, 0x03, 0x24, 0xDD, 0x7E, 0x00, 0xDD, 0x36 ; 6.$.~..6
  87CC  DB 0x19, 0x06, 0xFE, 0xC8, 0x38, 0x34, 0xDD, 0x36 ; ....84.6
  87D4  DB 0x19, 0x03, 0xFE, 0xD7, 0x30, 0x2C, 0xDD, 0x36 ; ....0,.6
  87DC  DB 0x19, 0x04, 0xFE, 0xD2, 0x20, 0x24, 0xDD, 0x7E ; .... $.~
  87E4  DB 0x02, 0xD6, 0x28, 0x67, 0xDD, 0x7E, 0x01, 0xD6 ; ..(g.~..
  87EC  DB 0x10, 0x6F, 0xCD, 0x48, 0x89, 0xDD, 0x7E, 0x1C ; .o.H..~.
  87F4  DB 0xC6, 0x30, 0x77, 0xF5, 0xEB, 0xCD, 0xED, 0x42 ; .0w....B
  87FC  DB 0xCD, 0x53, 0x00, 0xF1, 0xCD, 0xFC, 0x5B, 0xCD ; .S....[.
  8804  DB 0xF8, 0x42, 0xCD, 0xCA, 0x44, 0xCD, 0x04, 0x79 ; .B..D..y
  880C  DB 0xC0, 0xDD, 0x7E, 0x18, 0xDD, 0x36, 0x00, 0x48 ; ..~..6.H
  8814  DB 0xFE, 0x52, 0x28, 0x5C, 0xFE, 0x57, 0x30, 0x76 ; .R(\.W0v
  881C  DB 0xFE, 0x54, 0x30, 0x34, 0xFE, 0x51, 0x20, 0x0F ; .T04.Q .
  8824  DB 0xDD, 0x36, 0x00, 0x50, 0x11, 0xC2, 0x88, 0xDD ; .6.P....
  882C  DB 0x7E, 0x02, 0xD6, 0x24, 0xC3, 0x6A, 0x88, 0xCD ; ~..$.j..
  8834  DB 0xC8, 0xBF, 0xCD, 0x6A, 0x4A, 0xCD, 0x96, 0x44 ; ...jJ..D
  883C  DB 0xD8, 0xE5, 0xFD, 0xE1, 0x36, 0xD1, 0x23, 0xDD ; ....6.#.
  8844  DB 0x7E, 0x01, 0x77, 0x23, 0xDD, 0x7E, 0x02, 0x77 ; ~.w#.~.w
  884C  DB 0x23, 0x36, 0x24, 0xFD, 0x36, 0x19, 0x00, 0xC9 ; #6$.6...
  8854  DB 0xDD, 0x36, 0x00, 0x50, 0xD6, 0x54, 0x87, 0x6F ; .6.P.T.o
  885C  DB 0x26, 0x00, 0x01, 0xAB, 0x88, 0x09, 0x5E, 0x23 ; &.....^#
  8864  DB 0x56, 0xDD, 0x7E, 0x02, 0xD6, 0x20, 0x67, 0xDD ; V.~.. g.
  886C  DB 0x7E, 0x01, 0xD6, 0x10, 0x6F, 0xC3, 0xED, 0x88 ; ~...o...
  8874  DB 0xCD, 0x6A, 0x4A, 0x3E, 0x12, 0xCD, 0x89, 0x51 ; .jJ>...Q
  887C  DB 0x11, 0xD8, 0x88, 0xDD, 0x7E, 0x02, 0xD6, 0x28 ; ....~..(
  8884  DB 0x67, 0xDD, 0x7E, 0x01, 0xD6, 0x18, 0x6F, 0xDD ; g.~...o.
  888C  DB 0x36, 0x00, 0x53, 0xC3, 0xED, 0x88, 0xDD, 0x36 ; 6.S....6
  8894  DB 0x00, 0x50, 0x11, 0xB1, 0x88, 0x28, 0xCA, 0xFE ; .P...(..
  889C  DB 0x58, 0x11, 0xCB, 0x88, 0x28, 0xC3, 0xED, 0x5F ; X...(.._
  88A4  DB 0xE6, 0x07, 0xDD, 0x77, 0x1C, 0x18, 0xC9, 0xB1 ; ...w....
  88AC  DB 0x88, 0xB8, 0x88, 0xC2, 0x88, 0x02, 0x02, 0x3B ; .......;
  88B4  DB 0x3C, 0x02, 0x3A, 0x3D, 0x03, 0x02, 0x3B, 0x3C ; <.:=..;<
  88BC  DB 0x02, 0x3E, 0x3E, 0x02, 0x3A, 0x3D, 0x02, 0x03 ; .>>.:=..
  88C4  DB 0x3B, 0x3E, 0x3C, 0x03, 0x3A, 0x3E, 0x3D, 0x03 ; ;><.:>=.
  88CC  DB 0x03, 0x3B, 0x3E, 0x3C, 0x03, 0x3E, 0x3E, 0x3E ; .;><.>>>
  88D4  DB 0x03, 0x3A, 0x3E, 0x3D, 0x04, 0x04, 0x3B, 0x3E ; .:>=..;>
  88DC  DB 0x3E, 0x3C, 0x04, 0x3E, 0x3E, 0x3E, 0x3E, 0x04 ; ><.>>>>.
  88E4  DB 0x3E, 0x3E, 0x3E, 0x3E, 0x04, 0x3A, 0x3E, 0x3E ; >>>>.:>>
  88EC  DB 0x3D, 0xCD, 0xED, 0x42, 0xD5, 0xCD, 0x48, 0x89 ; =..B..H.
  88F4  DB 0xE3, 0x7E, 0x23, 0xE3, 0x08, 0x78, 0xFE, 0x18 ; .~#..x..
  88FC  DB 0x38, 0x08, 0x06, 0x00, 0xD5, 0x11, 0xC0, 0xFD ; 8.......
  8904  DB 0x19, 0xD1, 0x79, 0xFE, 0x18, 0xD2, 0x43, 0x89 ; ..y...C.
  890C  DB 0xED, 0x43, 0x1A, 0xE7, 0xEB, 0xCD, 0x53, 0x00 ; .C....S.
  8914  DB 0x01, 0x20, 0x00, 0x09, 0xEB, 0xE3, 0xE5, 0x46 ; . .....F
  891C  DB 0x23, 0x7E, 0xCD, 0xFC, 0x5B, 0x23, 0x10, 0xF9 ; #~..[#..
  8924  DB 0xE1, 0x46, 0x23, 0xEB, 0xE3, 0xE5, 0x1A, 0x77 ; .F#....w
  892C  DB 0x23, 0x13, 0x10, 0xFA, 0xE1, 0x01, 0x18, 0x00 ; #.......
  8934  DB 0x09, 0xEB, 0xE3, 0xEB, 0xED, 0x4B, 0x1A, 0xE7 ; .....K..
  893C  DB 0x04, 0x0C, 0x08, 0x3D, 0xC2, 0xF8, 0x88, 0xD1 ; ...=....
  8944  DB 0xCD, 0xF8, 0x42, 0xC9                   ; ..B.

; --- L8948 ---
  8948  7D          LD A,L
  8949  E6 F8       AND 0xf8
  894B  5F          LD E,A
  894C  6F          LD L,A
  894D  7C          LD A,H
  894E  26 00       LD H,0x00
  8950  29          ADD HL,HL
  8951  29          ADD HL,HL
  8952  01 00 38    LD BC,0x3800
  8955  09          ADD HL,BC
  8956  CB 3F       SRL A
  8958  CB 3F       SRL A
  895A  CB 3F       SRL A
  895C  4F          LD C,A
  895D  06 00       LD B,0x00
  895F  09          ADD HL,BC
  8960  CB 3B       SRL E
  8962  CB 3B       SRL E
  8964  CB 3B       SRL E
  8966  3A 14 E7    LD A,(0xe714)
  8969  83          ADD A,E

; --- L896A ---
  896A  D6 18       SUB 0x18
  896C  30 FC       JR NC,L896A
  896E  C6 18       ADD A,0x18
  8970  57          LD D,A
  8971  87          ADD A,A
  8972  82          ADD A,D
  8973  E5          PUSH HL
  8974  6F          LD L,A
  8975  26 00       LD H,0x00
  8977  29          ADD HL,HL
  8978  29          ADD HL,HL
  8979  29          ADD HL,HL
  897A  09          ADD HL,BC
  897B  01 00 E8    LD BC,0xe800
  897E  09          ADD HL,BC
  897F  42          LD B,D
  8980  4B          LD C,E
  8981  D1          POP DE
  8982  C9          RET
  8983  DB 0xDD, 0xCB, 0x00, 0x7E, 0x20, 0x32, 0xDD, 0xCB ; ...~ 2..
  898B  DB 0x00, 0xFE, 0xDD, 0x36, 0x09, 0xFF, 0xDD, 0x36 ; ...6...6
  8993  DB 0x08, 0xF8, 0xDD, 0x36, 0x0C, 0x05, 0xDD, 0x36 ; ...6...6
  899B  DB 0x11, 0x16, 0xDD, 0x36, 0x12, 0x8A, 0xDD, 0x36 ; ...6...6
  89A3  DB 0x0F, 0x00, 0xDD, 0x36, 0x10, 0x04, 0xDD, 0x36 ; ...6...6
  89AB  DB 0x0D, 0x01, 0xDD, 0x36, 0x0E, 0x04, 0xDD, 0x36 ; ...6...6
  89B3  DB 0x1E, 0x04, 0xDD, 0x7E, 0x18, 0xDD, 0x77, 0x1F ; ...~..w.
  89BB  DB 0xDD, 0x7E, 0x1E, 0xA7, 0x28, 0x1E, 0xDD, 0x35 ; .~..(..5
  89C3  DB 0x1B, 0x20, 0x19, 0xDD, 0x35, 0x1E, 0x20, 0x14 ; . ..5. .
  89CB  DB 0xDD, 0x7E, 0x1F, 0xFE, 0x46, 0xCA, 0xD0, 0x48 ; .~..F..H
  89D3  DB 0xDD, 0x36, 0x11, 0x1E, 0xDD, 0x36, 0x12, 0x8A ; .6...6..
  89DB  DB 0xDD, 0x36, 0x08, 0xF0, 0xCD, 0x98, 0x48, 0xDD ; .6....H.
  89E3  DB 0xCB, 0x00, 0x7E, 0xC8, 0xCD, 0xB0, 0x44, 0xDD ; ..~...D.
  89EB  DB 0xCB, 0x00, 0x7E, 0xC0, 0x3E, 0x81, 0x32, 0x00 ; ..~.>.2.
  89F3  DB 0xE3, 0xDD, 0x7E, 0x1E, 0xA7, 0x28, 0x0B, 0xCD ; ..~..(..
  89FB  DB 0x26, 0x8A, 0x3E, 0x13, 0xCD, 0x89, 0x51, 0xC3 ; &.>...Q.
  8A03  DB 0xD0, 0x48, 0xDD, 0x6E, 0x1C, 0xDD, 0x66, 0x1D ; .H.n..f.
  8A0B  DB 0x22, 0x22, 0xE7, 0x21, 0x02, 0xE1, 0xCB, 0xEE ; "".!....
  8A13  DB 0xC3, 0xD0, 0x48, 0x1C, 0x8F, 0x20, 0x83, 0x24 ; ..H.. .$
  8A1B  DB 0x8A, 0x20, 0x8B, 0x1C, 0x81, 0x20, 0x81, 0x24 ; . ... .$
  8A23  DB 0x81, 0x20, 0x81                         ; . .

; --- L8A26 ---
  8A26  01 07 0F    LD BC,0x0f07
  8A29  CD 47 00    CALL 0x0047   ; BIOS:WRTVDP
  8A2C  06 05       LD B,0x05
  8A2E  CD EC 5B    CALL L5BEC
  8A31  06 15       LD B,0x15
  8A33  FD 21 A0 E3 LD IY,0xe3a0

; --- L8A37 ---
  8A37  FD 7E 00    LD A,(IY+0)
  8A3A  E6 7F       AND 0x7f
  8A3C  28 0F       JR Z,L8A4D
  8A3E  FE 46       CP 0x46
  8A40  30 0B       JR NC,L8A4D
  8A42  FE 28       CP 0x28
  8A44  28 07       JR Z,L8A4D
  8A46  FD 36 00 23 LD (IY+0),0x23
  8A4A  FD 77 18    LD (IY+24),A

; --- L8A4D ---
  8A4D  11 20 00    LD DE,0x0020
  8A50  FD 19       ADD IY,DE
  8A52  10 E3       DJNZ L8A37
  8A54  01 07 01    LD BC,0x0107
  8A57  C3 47 00    JP 0x0047   ; BIOS:WRTVDP
  8A5A  DB 0xDD, 0xCB, 0x00, 0x7E, 0xC2, 0xE8, 0x8A, 0x3A ; ...~...:
  8A62  DB 0x00, 0xE7, 0xCB, 0x4F, 0x28, 0x08, 0xDD, 0x7E ; ...O(..~
  8A6A  DB 0x01, 0xC6, 0x08, 0xDD, 0x77, 0x01, 0x3A, 0x50 ; ....w.:P
  8A72  DB 0xE1, 0xCB, 0x4F, 0xC8, 0xDD, 0xCB, 0x00, 0xFE ; ..O.....
  8A7A  DB 0xDD, 0x7E, 0x01, 0x6F, 0xC6, 0x10, 0xDD, 0x77 ; .~.o...w
  8A82  DB 0x01, 0xDD, 0x36, 0x05, 0x00, 0xDD, 0x36, 0x0C ; ..6...6.
  8A8A  DB 0x00, 0xDD, 0x36, 0x0D, 0x01, 0xDD, 0x7E, 0x02 ; ..6...~.
  8A92  DB 0xD6, 0x20, 0x67, 0xCD, 0x48, 0x89, 0xDD, 0x73 ; . g.H..s
  8A9A  DB 0x06, 0xDD, 0x72, 0x07, 0xDD, 0x7E, 0x1C, 0x87 ; ..r..~..
  8AA2  DB 0x87, 0x4F, 0x06, 0x00, 0x21, 0x82, 0xE7, 0x09 ; .O..!...
  8AAA  DB 0x73, 0x23, 0x72, 0xDD, 0x7E, 0x00, 0xD6, 0xC9 ; s#r.~...
  8AB2  DB 0x4F, 0x87, 0x87, 0x81, 0x4F, 0x06, 0x00, 0x21 ; O...O..!
  8ABA  DB 0xF1, 0x8D, 0x09, 0x7E, 0xDD, 0x77, 0x03, 0x23 ; ...~.w.#
  8AC2  DB 0x7E, 0x23, 0xDD, 0x77, 0x19, 0x7E, 0xDD, 0x86 ; ~#.w.~..
  8ACA  DB 0x01, 0xDD, 0x77, 0x01, 0x23, 0x7E, 0xDD, 0x86 ; ..w.#~..
  8AD2  DB 0x02, 0xDD, 0x77, 0x02, 0x23, 0x7E, 0xDD, 0x77 ; ..w.#~.w
  8ADA  DB 0x15, 0xDD, 0x36, 0x14, 0x00, 0xDD, 0x6E, 0x0F ; ..6...n.
  8AE2  DB 0xDD, 0x66, 0x10, 0xCD, 0xF5, 0x8B, 0xDD, 0xCB ; .f......
  8AEA  DB 0x05, 0x4E, 0xC2, 0xB6, 0x8B, 0xDD, 0x7E, 0x00 ; .N....~.
  8AF2  DB 0xFE, 0xCF, 0xCA, 0x6C, 0x8B, 0x21, 0x50, 0xE1 ; ...l.!P.
  8AFA  DB 0xCB, 0x56, 0xC4, 0x45, 0x8F, 0xDD, 0x7E, 0x0C ; .V.E..~.
  8B02  DB 0xCB, 0x5E, 0x28, 0x16, 0xDD, 0xCB, 0x05, 0x46 ; .^(....F
  8B0A  DB 0x20, 0x0C, 0xDD, 0xCB, 0x15, 0x26, 0xDD, 0x36 ;  ....&.6
  8B12  DB 0x0D, 0x01, 0xDD, 0xCB, 0x05, 0xC6, 0xFE, 0x03 ; ........
  8B1A  DB 0x28, 0x50, 0xA7, 0x20, 0x05, 0xDD, 0x7E, 0x09 ; (P. ..~.
  8B22  DB 0x18, 0x0C, 0xFE, 0x03, 0x28, 0x05, 0xDD, 0x7E ; ....(..~
  8B2A  DB 0x0A, 0x18, 0x03, 0xDD, 0x7E, 0x0B, 0xDD, 0x86 ; ....~...
  8B32  DB 0x0E, 0x38, 0x05, 0xDD, 0x77, 0x0E, 0x18, 0x29 ; .8..w..)
  8B3A  DB 0xDD, 0x36, 0x0E, 0x00, 0xDD, 0x7E, 0x0C, 0xDD ; .6...~..
  8B42  DB 0x86, 0x0D, 0xDD, 0x77, 0x0C, 0x28, 0x06, 0xFE ; ...w.(..
  8B4A  DB 0x03, 0x20, 0x13, 0x18, 0x09, 0xDD, 0x6E, 0x11 ; . ....n.
  8B52  DB 0xDD, 0x66, 0x12, 0xCD, 0xF5, 0x8B, 0xDD, 0x7E ; .f.....~
  8B5A  DB 0x0D, 0x2F, 0x3C, 0xDD, 0x77, 0x0D, 0xCD, 0x15 ; ./<.w...
  8B62  DB 0x8C, 0xDD, 0x7E, 0x0C, 0xA7, 0xC8, 0xFE, 0x03 ; ..~.....
  8B6A  DB 0x20, 0x0E, 0xDD, 0x7E, 0x14, 0xDD, 0x86, 0x15 ;  ..~....
  8B72  DB 0xDD, 0x77, 0x14, 0x30, 0x03, 0xCD, 0x14, 0x8D ; .w.0....
  8B7A  DB 0xCD, 0xCA, 0x44, 0xCD, 0x04, 0x79, 0x28, 0x18 ; ..D..y(.
  8B82  DB 0xFE, 0xCF, 0xC0, 0x3E, 0x11, 0xCD, 0x89, 0x51 ; ...>...Q
  8B8A  DB 0xCD, 0xC1, 0x8B, 0xDD, 0x7E, 0x19, 0xFE, 0x32 ; ....~..2
  8B92  DB 0x28, 0x03, 0xFE, 0x14, 0xC0, 0xC3, 0x15, 0x8C ; (.......
  8B9A  DB 0xDD, 0x7E, 0x18, 0xFE, 0x4F, 0x20, 0x09, 0xDD ; .~..O ..
  8BA2  DB 0x36, 0x00, 0xCF, 0xDD, 0xCB, 0x05, 0xCE, 0xC9 ; 6.......
  8BAA  DB 0xCD, 0xA2, 0x8C, 0xDD, 0x36, 0x00, 0x50, 0x21 ; ....6.P!
  8BB2  DB 0x52, 0xE1, 0x35, 0xC9, 0xDD, 0x35, 0x19, 0x28 ; R.5..5.(
  8BBA  DB 0xEF, 0xDD, 0x7E, 0x19, 0xE6, 0x03, 0xC0, 0xDD ; ..~.....
  8BC2  DB 0x66, 0x02, 0xDD, 0x6E, 0x01, 0x01, 0x1F, 0x1F ; f..n....

; --- L8BCA ---
  8BCA  C5          PUSH BC
  8BCB  E5          PUSH HL
  8BCC  ED 5F       LD A,R
  8BCE  4F          LD C,A
  8BCF  CD 96 44    CALL L4496
  8BD2  79          LD A,C
  8BD3  D1          POP DE
  8BD4  C1          POP BC
  8BD5  D8          RET C
  8BD6  36 23       LD (HL),0x23
  8BD8  A1          AND C
  8BD9  CB 39       SRL C
  8BDB  91          SUB C
  8BDC  83          ADD A,E
  8BDD  23          INC HL
  8BDE  77          LD (HL),A
  8BDF  23          INC HL
  8BE0  ED 5F       LD A,R
  8BE2  A0          AND B
  8BE3  CB 38       SRL B
  8BE5  90          SUB B
  8BE6  82          ADD A,D
  8BE7  77          LD (HL),A
  8BE8  11 0A 00    LD DE,0x000a
  8BEB  19          ADD HL,DE
  8BEC  36 00       LD (HL),0x00
  8BEE  11 0C 00    LD DE,0x000c
  8BF1  19          ADD HL,DE
  8BF2  36 00       LD (HL),0x00
  8BF4  C9          RET
  8BF5  DB 0x7E, 0xA7, 0x20, 0x07, 0xDD, 0x6E, 0x0F, 0xDD ; ~. ..n..
  8BFD  DB 0x66, 0x10, 0x7E, 0xDD, 0x77, 0x09, 0x23, 0x7E ; f.~.w.#~
  8C05  DB 0xDD, 0x77, 0x0A, 0x23, 0x7E, 0xDD, 0x77, 0x0B ; .w.#~.w.
  8C0D  DB 0x23, 0xDD, 0x75, 0x11, 0xDD, 0x74, 0x12, 0xC9 ; #.u..t..
  8C15  DB 0xDD, 0x7E, 0x00, 0xD6, 0xC9, 0xCD, 0x2E, 0x5C ; .~.....\
  8C1D  DB 0x2B, 0x8C, 0x5E, 0x8C, 0x62, 0x8C, 0x70, 0x8C ; +.^.b.p.
  8C25  DB 0x76, 0x8C, 0x7C, 0x8C, 0x80, 0x8C, 0x0E, 0xD3 ; v.|.....
  8C2D  DB 0xDD, 0x7E, 0x0C, 0x87, 0x87, 0x81, 0x4F, 0x11 ; .~....O.
  8C35  DB 0x01, 0x01, 0x06, 0x02, 0xDD, 0x6E, 0x06, 0xDD ; .....n..
  8C3D  DB 0x66, 0x07, 0xCD, 0xED, 0x42, 0xCD, 0x53, 0x00 ; f...B.S.
  8C45  DB 0x79, 0xCD, 0xFC, 0x5B, 0x83, 0xCB, 0x0A, 0x28 ; y..[...(
  8C4D  DB 0x04, 0xCD, 0xFC, 0x5B, 0x83, 0x4F, 0xD5, 0x11 ; ...[.O..
  8C55  DB 0x20, 0x00, 0x19, 0xD1, 0x10, 0xE7, 0xC3, 0xF8 ;  .......
  8C5D  DB 0x42, 0x0E, 0xC3, 0x18, 0xCB, 0x06, 0x01, 0x16 ; B.......
  8C65  DB 0x00, 0xDD, 0x7E, 0x0C, 0xC6, 0xBF, 0x4F, 0x1E ; ..~...O.
  8C6D  DB 0x00, 0x18, 0xC9, 0x06, 0x01, 0x16, 0x01, 0x18 ; ........
  8C75  DB 0xF0, 0x06, 0x02, 0x16, 0x00, 0x18, 0xEA, 0x06 ; ........
  8C7D  DB 0x02, 0x18, 0xF2, 0xDD, 0x7E, 0x19, 0x11, 0xED ; ....~...
  8C85  DB 0x8C, 0xFE, 0x15, 0x30, 0x09, 0x11, 0xFA, 0x8C ; ...0....
  8C8D  DB 0xA7, 0x20, 0x03, 0x11, 0x07, 0x8D, 0xDD, 0x7E ; . .....~
  8C95  DB 0x02, 0xD6, 0x24, 0x67, 0xDD, 0x7E, 0x01, 0xD6 ; ..$g.~..
  8C9D  DB 0x14, 0x6F, 0xC3, 0xED, 0x88, 0xDD, 0x7E, 0x02 ; .o....~.
  8CA5  DB 0xD6, 0x20, 0x47, 0xC6, 0x04, 0x67, 0xDD, 0x7E ; . G..g.~
  8CAD  DB 0x01, 0xD6, 0x10, 0x4F, 0xC6, 0x04, 0x6F, 0xDD ; ...O..o.
  8CB5  DB 0x7E, 0x18, 0xFE, 0x4F, 0x28, 0xC5, 0x11, 0xE1 ; ~..O(...
  8CBD  DB 0x8C, 0xFE, 0x4B, 0xCA, 0xED, 0x88, 0x11, 0xE4 ; ..K.....
  8CC5  DB 0x8C, 0xFE, 0x4C, 0x28, 0x0C, 0x11, 0xE8, 0x8C ; ..L(....
  8CCD  DB 0x69, 0xFE, 0x4D, 0xCA, 0xED, 0x88, 0x11, 0xDA ; i.M.....
  8CD5  DB 0x8C, 0x60, 0xC3, 0xED, 0x88, 0x02, 0x02, 0xE3 ; .`......
  8CDD  DB 0xE4, 0x02, 0xE5, 0xE6, 0x01, 0x01, 0xE7, 0x01 ; ........
  8CE5  DB 0x02, 0xE7, 0xE7, 0x02, 0x01, 0xE7, 0x01, 0xE7 ; ........
  8CED  DB 0x03, 0x03, 0x8C, 0x8D, 0x8E, 0x03, 0x8F, 0x90 ; ........
  8CF5  DB 0x91, 0x03, 0x92, 0x93, 0x94, 0x03, 0x03, 0x95 ; ........
  8CFD  DB 0x96, 0x97, 0x03, 0x98, 0x99, 0x9A, 0x03, 0x9B ; ........
  8D05  DB 0x9C, 0x9D, 0x03, 0x03, 0x82, 0x1E, 0x83, 0x03 ; ........
  8D0D  DB 0xA4, 0x1E, 0xA3, 0x03, 0x83, 0x1E, 0x82, 0xDD ; ........
  8D15  DB 0x7E, 0x00, 0xD6, 0xC9, 0xCD, 0x2E, 0x5C, 0x2A ; ~.....\*
  8D1D  DB 0x8D, 0x51, 0x8D, 0x6C, 0x8D, 0x73, 0x8D, 0x93 ; .Q.l.s..
  8D25  DB 0x8D, 0x98, 0x8D, 0xB8, 0x8D, 0xDD, 0x7E, 0x13 ; ......~.
  8D2D  DB 0xC6, 0x03, 0xDD, 0x77, 0x13, 0xE6, 0x0F, 0xFE ; ...w....
  8D35  DB 0x0F, 0x30, 0x10, 0xFE, 0x0E, 0x30, 0x30, 0xFE ; .0...00.
  8D3D  DB 0x09, 0x30, 0xED, 0x4F, 0xCD, 0x96, 0x44, 0xD8 ; .0.O..D.
  8D45  DB 0xC3, 0xD1, 0x8D, 0x0E, 0x04, 0xCD, 0x96, 0x44 ; .......D
  8D4D  DB 0xD8, 0xC3, 0xD5, 0x8D, 0x06, 0x04, 0xC5, 0xCD ; ........
  8D55  DB 0x96, 0x44, 0xC1, 0xD8, 0xDD, 0x7E, 0x13, 0xFE ; .D...~..
  8D5D  DB 0x09, 0x38, 0x01, 0x97, 0x4F, 0xCD, 0xD9, 0x8D ; .8..O...
  8D65  DB 0x0C, 0xDD, 0x71, 0x13, 0x10, 0xE8, 0xC9, 0xCD ; ..q.....
  8D6D  DB 0x96, 0x44, 0xD8, 0xC3, 0xD5, 0x8D, 0xCD, 0x96 ; .D......
  8D75  DB 0x44, 0xD8, 0xDD, 0x35, 0x13, 0xDD, 0x7E, 0x13 ; D..5..~.
  8D7D  DB 0xE6, 0x07, 0xFE, 0x04, 0x4F, 0xCA, 0xD9, 0x8D ; ....O...
  8D85  DB 0xCD, 0xD9, 0x8D, 0xCD, 0x96, 0x44, 0xD8, 0x3E ; .....D.>
  8D8D  DB 0x08, 0x91, 0x4F, 0xC3, 0xD9, 0x8D, 0x06, 0x02 ; ..O.....
  8D95  DB 0xC3, 0x53, 0x8D, 0xCD, 0x91, 0x4C, 0x21, 0xB3 ; .S...L!.
  8D9D  DB 0x8D, 0xD9, 0x06, 0x05, 0xC5, 0xCD, 0x96, 0x44 ; .......D
  8DA5  DB 0xC1, 0xD8, 0xD9, 0x7E, 0x23, 0x83, 0xD9, 0x4F ; ...~#..O
  8DAD  DB 0xCD, 0xD9, 0x8D, 0x10, 0xEF, 0xC9, 0x00, 0xFF ; ........
  8DB5  DB 0x01, 0xFE, 0x02, 0xDD, 0x34, 0x13, 0xDD, 0x7E ; ....4..~
  8DBD  DB 0x13, 0xE6, 0x03, 0xCA, 0x6C, 0x8D, 0xCD, 0x96 ; ....l...
  8DC5  DB 0x44, 0xD8, 0xED, 0x5F, 0xE6, 0x0C, 0x4F, 0x3E ; D.._..O>
  8DCD  DB 0x2D, 0xC3, 0xDB, 0x8D, 0x3E, 0x15, 0x18, 0x06 ; -...>...
  8DD5  DB 0x3E, 0x2A, 0x18, 0x02, 0x3E, 0x2B, 0xE5, 0xFD ; >*..>+..
  8DDD  DB 0xE1, 0xFD, 0x77, 0x00, 0xFD, 0x71, 0x1A, 0xDD ; ..w..q..
  8DE5  DB 0x7E, 0x01, 0xFD, 0x77, 0x01, 0xDD, 0x7E, 0x02 ; ~..w..~.
  8DED  DB 0xFD, 0x77, 0x02, 0xC9, 0x20, 0x28, 0x00, 0x00 ; .w.. (..
  8DF5  DB 0x7F, 0x20, 0x14, 0x00, 0x00, 0x08, 0x1C, 0x0A ; . ......
  8DFD  DB 0xFC, 0xFC, 0x06, 0x20, 0x14, 0xFC, 0x00, 0x0A ; ... ....
  8E05  DB 0x1C, 0x14, 0x00, 0xFC, 0x0A, 0x20, 0x28, 0x00 ; ..... (.
  8E0D  DB 0x00, 0x0A, 0x24, 0x63, 0x04, 0x04, 0x10, 0xDD ; ..$c....
  8E15  DB 0xCB, 0x00, 0x7E, 0x20, 0x13, 0xCD, 0xB3, 0xBF ; ..~ ....
  8E1D  DB 0x3E, 0x12, 0xCD, 0x89, 0x51, 0xDD, 0xCB, 0x00 ; >...Q...
  8E25  DB 0xFE, 0xDD, 0x36, 0x0C, 0x00, 0xC3, 0x9C, 0x84 ; ..6.....
  8E2D  DB 0xCD, 0x45, 0x8F, 0xDD, 0x7E, 0x0F, 0xB7, 0xC2 ; .E..~...
  8E35  DB 0x98, 0x48, 0xC3, 0xD0, 0x48, 0xDD, 0xCB, 0x00 ; .H..H...
  8E3D  DB 0x7E, 0x20, 0x1D, 0xDD, 0x36, 0x0C, 0x01, 0xDD ; ~ ..6...
  8E45  DB 0x36, 0x09, 0xFF, 0xDD, 0x36, 0x08, 0xE0, 0xDD ; 6...6...
  8E4D  DB 0x36, 0x00, 0xD3, 0xDD, 0x4E, 0x1C, 0x06, 0x00 ; 6...N...
  8E55  DB 0x21, 0xAF, 0x8E, 0x09, 0x7E, 0xDD, 0x77, 0x1D ; !...~.w.
  8E5D  DB 0xDD, 0x7E, 0x1B, 0xDD, 0x34, 0x1B, 0xE6, 0x03 ; .~..4...
  8E65  DB 0xDD, 0x36, 0x03, 0x24, 0xDD, 0x36, 0x04, 0x81 ; .6.$.6..
  8E6D  DB 0x28, 0x0A, 0xDD, 0x36, 0x03, 0x04, 0xDD, 0x7E ; (..6...~
  8E75  DB 0x1D, 0xDD, 0x77, 0x04, 0xCD, 0x98, 0x48, 0xDD ; ..w...H.
  8E7D  DB 0xCB, 0x00, 0x7E, 0xC8, 0xCD, 0xB0, 0x44, 0xDD ; ..~...D.
  8E85  DB 0xCB, 0x00, 0x7E, 0xC0, 0xFD, 0x21, 0x00, 0xE3 ; ..~..!..
  8E8D  DB 0xFD, 0x36, 0x00, 0x81, 0x97, 0xFD, 0x77, 0x1B ; .6....w.
  8E95  DB 0x21, 0x48, 0xE1, 0x7E, 0xD6, 0x05, 0x30, 0x01 ; !H.~..0.
  8E9D  DB 0x97, 0x77, 0xFD, 0xCB, 0x05, 0xFE, 0xCD, 0xD0 ; .w......
  8EA5  DB 0x48, 0xCD, 0xC8, 0xBF, 0xDD, 0x7E, 0x1C, 0xC3 ; H....~..
  8EAD  DB 0x48, 0x75, 0x81, 0x83, 0x84, 0x86, 0x87, 0x89 ; Hu......
  8EB5  DB 0x8A, 0x8D, 0xCD, 0x25, 0x8F, 0x38, 0x0B, 0xDD ; ...%.8..
  8EBD  DB 0x36, 0x1C, 0x03, 0xDD, 0x36, 0x1D, 0x18, 0xC3 ; 6...6...
  8EC5  DB 0xC3, 0x87, 0xDD, 0x35, 0x1C, 0xC2, 0x06, 0x88 ; ...5....
  8ECD  DB 0xDD, 0x7E, 0x1D, 0xDD, 0x77, 0x1C, 0xCD, 0x96 ; .~..w...
  8ED5  DB 0x44, 0xDA, 0x06, 0x88, 0xDD, 0x7E, 0x00, 0xD6 ; D....~..
  8EDD  DB 0xD4, 0x28, 0x33, 0x3D, 0x28, 0x19, 0xDD, 0x36 ; .(3=(..6
  8EE5  DB 0x1C, 0x08, 0xDD, 0x34, 0x1E, 0xDD, 0x7E, 0x1E ; ...4..~.
  8EED  DB 0xE6, 0x03, 0x87, 0x87, 0xC6, 0x02, 0x4F, 0x3E ; ......O>
  8EF5  DB 0x15, 0xCD, 0xDB, 0x8D, 0xC3, 0x06, 0x88, 0x3A ; .......:
  8EFD  DB 0x02, 0xE3, 0xDD, 0xBE, 0x02, 0x01, 0x01, 0x00 ; ........
  8F05  DB 0x30, 0x03, 0x01, 0x07, 0x08, 0x3A, 0x10, 0xE7 ; 0....:..
  8F0D  DB 0xA7, 0x20, 0xE4, 0x48, 0x18, 0xE1, 0xDD, 0x36 ; . .H...6
  8F15  DB 0x1C, 0x0A, 0xDD, 0x34, 0x1E, 0xDD, 0x7E, 0x1E ; ...4..~.
  8F1D  DB 0x87, 0xE6, 0x0F, 0x4F, 0x3E, 0x26, 0x18, 0xD1 ; ...O>&..
  8F25  DB 0xDD, 0xCB, 0x00, 0x7E, 0x20, 0x1A, 0xE1, 0x3A ; ...~ ..:
  8F2D  DB 0x00, 0xE7, 0xCB, 0x4F, 0xC8, 0xDD, 0x7E, 0x01 ; ...O..~.
  8F35  DB 0xC6, 0x08, 0xDD, 0x77, 0x01, 0xD0, 0xDD, 0xCB ; ...w....
  8F3D  DB 0x00, 0xFE, 0xC6, 0x10, 0xDD, 0x77, 0x01, 0xE9 ; .....w..
  8F45  DB 0x37, 0x3A, 0x00, 0xE7, 0xCB, 0x4F, 0xC8, 0xDD ; 7:...O..
  8F4D  DB 0x7E, 0x01, 0xC6, 0x08, 0xDD, 0x77, 0x01, 0xFE ; ~....w..
  8F55  DB 0xD0, 0xD8, 0xF1, 0xCD, 0xAB, 0xBF, 0xC3, 0xD0 ; ........
  8F5D  DB 0x48                                     ; H

; --- L8F5E ---
  8F5E  DD 21 00 E1 LD IX,0xe100
  8F62  DD 7E 50    LD A,(IX+80)
  8F65  CB 57       BIT 2,A
  8F67  C2 4D 93    JP NZ,L934D
  8F6A  CB 4F       BIT 1,A
  8F6C  C2 28 90    JP NZ,L9028
  8F6F  CB 47       BIT 0,A
  8F71  C8          RET Z
  8F72  3A 00 E7    LD A,(0xe700)
  8F75  CB 4F       BIT 1,A
  8F77  C8          RET Z
  8F78  DD 35 56    DEC (IX+86)
  8F7B  DD 7E 56    LD A,(IX+86)
  8F7E  28 23       JR Z,L8FA3
  8F80  FE 0A       CP 0x0a
  8F82  D0          RET NC
  8F83  4F          LD C,A
  8F84  DD 7E 57    LD A,(IX+87)
  8F87  E6 1F       AND 0x1f
  8F89  FE 11       CP 0x11
  8F8B  D0          RET NC
  8F8C  06 00       LD B,0x00
  8F8E  21 99 8F    LD HL,0x8f99
  8F91  09          ADD HL,BC
  8F92  7E          LD A,(HL)
  8F93  21 10 E7    LD HL,0xe710
  8F96  BE          CP (HL)
  8F97  D0          RET NC
  8F98  77          LD (HL),A
  8F99  C9          RET
  8F9A  DB 0x0C, 0x11, 0x14, 0x17, 0x1A, 0x1D, 0x20, 0x23 ; ...... #
  8FA2  DB 0x26                                     ; &

; --- L8FA3 ---
  8FA3  32 10 E7    LD (0xe710),A
  8FA6  DD CB 57 6E BIT 5,(IX+87)
  8FAA  28 08       JR Z,L8FB4
  8FAC  3A 02 E1    LD A,(0xe102)
  8FAF  CB 7F       BIT 7,A
  8FB1  CC 11 52    CALL Z,L5211

; --- L8FB4 ---
  8FB4  21 C0 00    LD HL,0x00c0
  8FB7  22 5A E1    LD (0xe15a),HL
  8FBA  DD 7E 57    LD A,(IX+87)
  8FBD  E6 1F       AND 0x1f
  8FBF  D6 10       SUB 0x10
  8FC1  20 03       JR NZ,L8FC6
  8FC3  32 12 E7    LD (0xe712),A

; --- L8FC6 ---
  8FC6  3D          DEC A
  8FC7  CC E4 93    CALL Z,L93E4

; --- L8FCA ---
  8FCA  DD 36 50 02 LD (IX+80),0x02
  8FCE  DD CB 58 4E BIT 1,(IX+88)
  8FD2  20 0A       JR NZ,L8FDE
  8FD4  DD CB 2D DE SET 3,(IX+45)
  8FD8  DD 7E 55    LD A,(IX+85)
  8FDB  DD 77 59    LD (IX+89),A

; --- L8FDE ---
  8FDE  21 AB 93    LD HL,0x93ab
  8FE1  22 17 E7    LD (0xe717),HL
  8FE4  0E 08       LD C,0x08
  8FE6  21 80 E7    LD HL,0xe780
  8FE9  DD 46 51    LD B,(IX+81)
  8FEC  97          SUB A

; --- L8FED ---
  8FED  CD 9C 90    CALL L909C
  8FF0  E5          PUSH HL
  8FF1  2A 17 E7    LD HL,(0xe717)
  8FF4  5E          LD E,(HL)
  8FF5  23          INC HL
  8FF6  56          LD D,(HL)
  8FF7  23          INC HL
  8FF8  0D          DEC C
  8FF9  20 05       JR NZ,L9000
  8FFB  21 AB 93    LD HL,0x93ab
  8FFE  0E 08       LD C,0x08

; --- L9000 ---
  9000  22 17 E7    LD (0xe717),HL
  9003  FD 73 0F    LD (IY+15),E
  9006  FD 72 10    LD (IY+16),D
  9009  FD 36 0E 00 LD (IY+14),0x00
  900D  FD 77 1C    LD (IY+28),A
  9010  3C          INC A
  9011  E1          POP HL
  9012  10 D9       DJNZ L8FED
  9014  DD CB 57 66 BIT 4,(IX+87)
  9018  20 0E       JR NZ,L9028
  901A  21 B9 3A    LD HL,0x3ab9
  901D  CD 25 5C    CALL L5C25
  9020  54          LD D,H
  9021  49          LD C,C
  9022  4D          LD C,L
  9023  45          LD B,L
  9024  00          NOP
  9025  CD F8 42    CALL L42F8

; --- L9028 ---
  9028  2A 5A E1    LD HL,(0xe15a)
  902B  7C          LD A,H
  902C  B5          OR L
  902D  28 18       JR Z,L9047
  902F  2B          DEC HL
  9030  22 5A E1    LD (0xe15a),HL
  9033  7C          LD A,H
  9034  B5          OR L
  9035  20 10       JR NZ,L9047
  9037  DD CB 57 6E BIT 5,(IX+87)
  903B  28 0A       JR Z,L9047
  903D  3A 02 E1    LD A,(0xe102)
  9040  CB 7F       BIT 7,A
  9042  3E 19       LD A,0x19
  9044  CC 89 51    CALL Z,L5189

; --- L9047 ---
  9047  DD CB 57 66 BIT 4,(IX+87)
  904B  20 3D       JR NZ,L908A
  904D  2A 54 E1    LD HL,(0xe154)
  9050  7D          LD A,L
  9051  D6 01       SUB 0x01
  9053  27          DAA
  9054  6F          LD L,A
  9055  30 1C       JR NC,L9073
  9057  2E 59       LD L,0x59
  9059  7C          LD A,H
  905A  D6 01       SUB 0x01
  905C  27          DAA
  905D  67          LD H,A
  905E  DD 7E 59    LD A,(IX+89)
  9061  D6 03       SUB 0x03
  9063  27          DAA
  9064  DD 77 59    LD (IX+89),A
  9067  30 0A       JR NC,L9073
  9069  DD CB 58 46 BIT 0,(IX+88)
  906D  28 04       JR Z,L9073
  906F  DD CB 2D 9E RES 3,(IX+45)

; --- L9073 ---
  9073  22 54 E1    LD (0xe154),HL
  9076  CD ED 42    CALL L42ED
  9079  EB          EX DE,HL
  907A  21 BD 3A    LD HL,0x3abd
  907D  CD 53 00    CALL 0x0053   ; BIOS:SETWRT
  9080  EB          EX DE,HL
  9081  7C          LD A,H
  9082  CD 74 4C    CALL L4C74
  9085  7C          LD A,H
  9086  B5          OR L
  9087  CA 25 93    JP Z,L9325

; --- L908A ---
  908A  DD 7E 52    LD A,(IX+82)
  908D  A7          AND A
  908E  CA A6 90    JP Z,L90A6
  9091  DD BE 53    CP (IX+83)
  9094  28 01       JR Z,L9097
  9096  D0          RET NC

; --- L9097 ---
  9097  DD CB 50 DE SET 3,(IX+80)
  909B  C9          RET

; --- L909C ---
  909C  5E          LD E,(HL)
  909D  23          INC HL
  909E  56          LD D,(HL)
  909F  23          INC HL
  90A0  23          INC HL
  90A1  23          INC HL
  90A2  D5          PUSH DE
  90A3  FD E1       POP IY
  90A5  C9          RET

; --- L90A6 ---
  90A6  3A 2E E1    LD A,(0xe12e)
  90A9  47          LD B,A
  90AA  CB 3F       SRL A
  90AC  CB 3F       SRL A
  90AE  4F          LD C,A
  90AF  78          LD A,B
  90B0  91          SUB C
  90B1  32 2E E1    LD (0xe12e),A
  90B4  3A 32 E1    LD A,(0xe132)
  90B7  D6 08       SUB 0x08
  90B9  30 01       JR NC,L90BC
  90BB  97          SUB A

; --- L90BC ---
  90BC  32 32 E1    LD (0xe132),A
  90BF  CD B3 BF    CALL LBFB3
  90C2  CD C8 BF    CALL LBFC8
  90C5  DD CB 2D 9E RES 3,(IX+45)
  90C9  DD 36 50 00 LD (IX+80),0x00
  90CD  3A 02 E1    LD A,(0xe102)
  90D0  CB 7F       BIT 7,A
  90D2  C0          RET NZ
  90D3  CD E4 9A    CALL L9AE4
  90D6  FD 21 A0 E3 LD IY,0xe3a0
  90DA  06 15       LD B,0x15

; --- L90DC ---
  90DC  FD 7E 00    LD A,(IY+0)
  90DF  E6 7F       AND 0x7f
  90E1  FE 53       CP 0x53
  90E3  28 10       JR Z,L90F5
  90E5  FE 52       CP 0x52
  90E7  38 0C       JR C,L90F5
  90E9  FE 57       CP 0x57
  90EB  30 08       JR NC,L90F5
  90ED  FD 36 00 50 LD (IY+0),0x50
  90F1  FD 36 18 00 LD (IY+24),0x00

; --- L90F5 ---
  90F5  11 20 00    LD DE,0x0020
  90F8  FD 19       ADD IY,DE
  90FA  10 E0       DJNZ L90DC
  90FC  16 02       LD D,0x02

; --- L90FE ---
  90FE  DD CB 57 7E BIT 7,(IX+87)
  9102  C2 4E 91    JP NZ,L914E
  9105  01 07 0F    LD BC,0x0f07
  9108  CD 47 00    CALL 0x0047   ; BIOS:WRTVDP
  910B  D5          PUSH DE
  910C  06 03       LD B,0x03
  910E  CD 93 93    CALL L9393
  9111  D1          POP DE
  9112  21 00 E8    LD HL,0xe800
  9115  01 40 02    LD BC,0x0240

; --- L9118 ---
  9118  7A          LD A,D
  9119  FE 02       CP 0x02
  911B  20 14       JR NZ,L9131
  911D  7E          LD A,(HL)
  911E  FE A0       CP 0xa0
  9120  38 21       JR C,L9143
  9122  36 E7       LD (HL),0xe7
  9124  FE A7       CP 0xa7
  9126  38 1B       JR C,L9143
  9128  FE AB       CP 0xab
  912A  30 17       JR NC,L9143
  912C  C6 3C       ADD A,0x3c
  912E  77          LD (HL),A
  912F  18 12       JR L9143

; --- L9131 ---
  9131  7E          LD A,(HL)
  9132  FE E3       CP 0xe3
  9134  38 0D       JR C,L9143
  9136  FE E8       CP 0xe8
  9138  30 09       JR NC,L9143
  913A  36 3E       LD (HL),0x3e
  913C  FE E7       CP 0xe7
  913E  28 03       JR Z,L9143
  9140  D6 A9       SUB 0xa9
  9142  77          LD (HL),A

; --- L9143 ---
  9143  23          INC HL
  9144  0B          DEC BC
  9145  78          LD A,B
  9146  B1          OR C
  9147  20 CF       JR NZ,L9118
  9149  21 00 E7    LD HL,0xe700
  914C  CB C6       SET 0,(HL)

; --- L914E ---
  914E  D5          PUSH DE
  914F  CD 26 8A    CALL L8A26
  9152  06 04       LD B,0x04
  9154  CD 93 93    CALL L9393
  9157  D1          POP DE
  9158  15          DEC D
  9159  C2 FE 90    JP NZ,L90FE
  915C  0E 1A       LD C,0x1a
  915E  DD CB 57 6E BIT 5,(IX+87)
  9162  20 01       JR NZ,L9165
  9164  0C          INC C

; --- L9165 ---
  9165  DD 7E 57    LD A,(IX+87)
  9168  E6 1F       AND 0x1f
  916A  FE 11       CP 0x11
  916C  28 15       JR Z,L9183
  916E  F5          PUSH AF
  916F  C5          PUSH BC
  9170  CD 6C 51    CALL L516C
  9173  C1          POP BC
  9174  F1          POP AF
  9175  FE 10       CP 0x10
  9177  28 0A       JR Z,L9183
  9179  79          LD A,C
  917A  CD 89 51    CALL L5189
  917D  CD D0 92    CALL L92D0
  9180  CD 6C 51    CALL L516C

; --- L9183 ---
  9183  DD CB 57 76 BIT 6,(IX+87)
  9187  20 0F       JR NZ,L9198
  9189  21 66 39    LD HL,0x3966
  918C  CD 25 5C    CALL L5C25
  918F  42          LD B,D
  9190  4F          LD C,A
  9191  4E          LD C,(HL)
  9192  55          LD D,L
  9193  53          LD D,E
  9194  00          NOP
  9195  11 6B 39    LD DE,0x396b

; --- L9198 ---
  9198  DD 7E 57    LD A,(IX+87)
  919B  E6 1F       AND 0x1f
  919D  FE 10       CP 0x10
  919F  38 05       JR C,L91A6
  91A1  21 02 E1    LD HL,0xe102
  91A4  CB D6       SET 2,(HL)

; --- L91A6 ---
  91A6  4F          LD C,A
  91A7  06 00       LD B,0x00
  91A9  21 02 93    LD HL,0x9302
  91AC  09          ADD HL,BC
  91AD  7E          LD A,(HL)
  91AE  F5          PUSH AF
  91AF  DD CB 57 76 BIT 6,(IX+87)
  91B3  20 0B       JR NZ,L91C0
  91B5  4F          LD C,A
  91B6  87          ADD A,A
  91B7  81          ADD A,C
  91B8  4F          LD C,A
  91B9  21 EC 4A    LD HL,0x4aec
  91BC  09          ADD HL,BC
  91BD  CD B5 49    CALL L49B5

; --- L91C0 ---
  91C0  F1          POP AF
  91C1  CD 74 4A    CALL L4A74
  91C4  06 64       LD B,0x64
  91C6  DD 7E 57    LD A,(IX+87)
  91C9  E6 1F       AND 0x1f
  91CB  F5          PUSH AF
  91CC  E6 1E       AND 0x1e
  91CE  FE 10       CP 0x10
  91D0  C4 93 93    CALL NZ,L9393
  91D3  CD 15 93    CALL L9315
  91D6  CD D0 92    CALL L92D0
  91D9  06 28       LD B,0x28
  91DB  CD 93 93    CALL L9393
  91DE  21 00 E7    LD HL,0xe700
  91E1  CB C6       SET 0,(HL)
  91E3  F1          POP AF
  91E4  21 02 E1    LD HL,0xe102
  91E7  CB 4E       BIT 1,(HL)
  91E9  C0          RET NZ
  91EA  D6 0F       SUB 0x0f
  91EC  DA 63 41    JP C,L4163
  91EF  20 0C       JR NZ,L91FD
  91F1  21 A5 B7    LD HL,0xb7a5
  91F4  22 22 E7    LD (0xe722),HL
  91F7  21 02 E1    LD HL,0xe102
  91FA  CB EE       SET 5,(HL)
  91FC  C9          RET

; --- L91FD ---
  91FD  3D          DEC A
  91FE  C2 51 92    JP NZ,L9251
  9201  CD 6C 51    CALL L516C
  9204  CD ED 42    CALL L42ED
  9207  21 00 E8    LD HL,0xe800
  920A  11 00 3C    LD DE,0x3c00
  920D  01 40 02    LD BC,0x0240
  9210  CD 5C 00    CALL 0x005C   ; BIOS:LDIRVM
  9213  21 B4 BB    LD HL,0xbbb4
  9216  CD 33 94    CALL L9433
  9219  CD 6E 94    CALL L946E
  921C  21 00 E8    LD HL,0xe800
  921F  11 00 EB    LD DE,0xeb00
  9222  01 40 02    LD BC,0x0240
  9225  ED B0       LDIR
  9227  21 00 3C    LD HL,0x3c00
  922A  11 00 E8    LD DE,0xe800
  922D  01 40 02    LD BC,0x0240
  9230  CD 59 00    CALL 0x0059   ; BIOS:LDIRMV
  9233  DD 36 57 D1 LD (IX+87),0xd1
  9237  DD 36 56 0C LD (IX+86),0x0c
  923B  DD 36 50 01 LD (IX+80),0x01
  923F  21 00 E7    LD HL,0xe700
  9242  36 0C       LD (HL),0x0c
  9244  3E 20       LD A,0x20
  9246  32 10 E7    LD (0xe710),A
  9249  3E 0C       LD A,0x0c
  924B  CD 89 51    CALL L5189
  924E  C3 CA 92    JP L92CA

; --- L9251 ---
  9251  3D          DEC A
  9252  20 5B       JR NZ,L92AF
  9254  06 02       LD B,0x02
  9256  CD 93 93    CALL L9393
  9259  21 24 39    LD HL,0x3924
  925C  06 09       LD B,0x09
  925E  0E 4C       LD C,0x4c
  9260  11 FD BB    LD DE,0xbbfd

; --- L9263 ---
  9263  C5          PUSH BC
  9264  D5          PUSH DE
  9265  E5          PUSH HL
  9266  69          LD L,C
  9267  26 80       LD H,0x80
  9269  01 07 7F    LD BC,0x7f07
  926C  CD F3 92    CALL L92F3
  926F  E1          POP HL
  9270  D1          POP DE
  9271  06 11       LD B,0x11
  9273  CD ED 42    CALL L42ED
  9276  CD 53 00    CALL 0x0053   ; BIOS:SETWRT

; --- L9279 ---
  9279  1A          LD A,(DE)
  927A  CD FC 5B    CALL L5BFC
  927D  13          INC DE
  927E  10 F9       DJNZ L9279
  9280  CD F8 42    CALL L42F8
  9283  D5          PUSH DE
  9284  E5          PUSH HL
  9285  06 06       LD B,0x06
  9287  CD 93 93    CALL L9393
  928A  E1          POP HL
  928B  D1          POP DE
  928C  01 E0 FF    LD BC,0xffe0
  928F  09          ADD HL,BC
  9290  C1          POP BC
  9291  79          LD A,C
  9292  D6 08       SUB 0x08
  9294  4F          LD C,A
  9295  10 CC       DJNZ L9263
  9297  CD E4 9A    CALL L9AE4
  929A  11 F3 BB    LD DE,0xbbf3
  929D  CD E7 93    CALL L93E7
  92A0  DD 36 57 B2 LD (IX+87),0xb2
  92A4  06 0A       LD B,0x0a
  92A6  CD 93 93    CALL L9393
  92A9  CD CA 92    CALL L92CA
  92AC  C3 CA 8F    JP L8FCA

; --- L92AF ---
  92AF  21 F4 A6    LD HL,0xa6f4
  92B2  22 22 E7    LD (0xe722),HL
  92B5  21 02 E1    LD HL,0xe102
  92B8  CB EE       SET 5,(HL)
  92BA  CB DE       SET 3,(HL)
  92BC  06 3C       LD B,0x3c
  92BE  CD 93 93    CALL L9393
  92C1  97          SUB A
  92C2  32 00 E7    LD (0xe700),A
  92C5  3E 80       LD A,0x80
  92C7  32 12 E7    LD (0xe712),A

; --- L92CA ---
  92CA  21 02 E1    LD HL,0xe102
  92CD  CB 96       RES 2,(HL)
  92CF  C9          RET

; --- L92D0 ---
  92D0  3A 42 E2    LD A,(0xe242)
  92D3  A7          AND A
  92D4  28 09       JR Z,L92DF
  92D6  3A 5A E2    LD A,(0xe25a)
  92D9  CB 3F       SRL A
  92DB  FE 0D       CP 0x0d
  92DD  28 0D       JR Z,L92EC

; --- L92DF ---
  92DF  3A 5D E2    LD A,(0xe25d)
  92E2  A7          AND A
  92E3  C8          RET Z
  92E4  3A 75 E2    LD A,(0xe275)
  92E7  CB 3F       SRL A
  92E9  FE 04       CP 0x04
  92EB  C0          RET NZ

; --- L92EC ---
  92EC  06 01       LD B,0x01
  92EE  CD 93 93    CALL L9393
  92F1  18 DD       JR L92D0

; --- L92F3 ---
  92F3  16 07       LD D,0x07

; --- L92F5 ---
  92F5  C5          PUSH BC
  92F6  D5          PUSH DE
  92F7  E5          PUSH HL
  92F8  CD CA 8B    CALL L8BCA
  92FB  E1          POP HL
  92FC  D1          POP DE
  92FD  C1          POP BC
  92FE  15          DEC D
  92FF  20 F4       JR NZ,L92F5
  9301  C9          RET
  9302  DB 0x0A, 0x0C, 0x0D, 0x10, 0x0E, 0x0F, 0x0E, 0x0F ; ........
  930A  DB 0x0F, 0x10, 0x11, 0x11, 0x00, 0x00, 0x00, 0x11 ; ........
  9312  DB 0x12, 0x13, 0x14                         ; ...

; --- L9315 ---
  9315  21 B9 3A    LD HL,0x3ab9
  9318  CD 25 5C    CALL L5C25
  931B  20 20       JR NZ,L933D
  931D  20 20       JR NZ,L933F
  931F  20 20       JR NZ,L9341
  9321  00          NOP
  9322  C3 F8 42    JP L42F8

; --- L9325 ---
  9325  DD CB 2D 9E RES 3,(IX+45)
  9329  CD BF BF    CALL LBFBF
  932C  3A 2E E1    LD A,(0xe12e)
  932F  C6 10       ADD A,0x10
  9331  32 2E E1    LD (0xe12e),A
  9334  CD AB BF    CALL LBFAB
  9337  DD CB 57 6E BIT 5,(IX+87)
  933B  28 08       JR Z,L9345

; --- L933D ---
  933D  3A 02 E1    LD A,(0xe102)
  9340  CB 7F       BIT 7,A
  9342  CC 11 52    CALL Z,L5211

; --- L9345 ---
  9345  CD 15 93    CALL L9315
  9348  DD 36 50 0E LD (IX+80),0x0e
  934C  C9          RET

; --- L934D ---
  934D  0E 00       LD C,0x00
  934F  DD 46 51    LD B,(IX+81)
  9352  21 80 E7    LD HL,0xe780

; --- L9355 ---
  9355  CD 9C 90    CALL L909C
  9358  FD 7E 00    LD A,(IY+0)
  935B  FE C9       CP 0xc9
  935D  38 0E       JR C,L936D
  935F  FE CF       CP 0xcf
  9361  30 0A       JR NC,L936D
  9363  CB F9       SET 7,C
  9365  FD 7E 0C    LD A,(IY+12)
  9368  FE 03       CP 0x03
  936A  28 01       JR Z,L936D
  936C  0C          INC C

; --- L936D ---
  936D  10 E6       DJNZ L9355
  936F  DD CB 50 4E BIT 1,(IX+80)
  9373  28 16       JR Z,L938B
  9375  79          LD A,C
  9376  E6 7F       AND 0x7f
  9378  C0          RET NZ
  9379  CD E4 9A    CALL L9AE4
  937C  DD 36 50 0C LD (IX+80),0x0c
  9380  DD CB 57 6E BIT 5,(IX+87)
  9384  C8          RET Z
  9385  CD 6C 51    CALL L516C
  9388  C3 63 41    JP L4163

; --- L938B ---
  938B  CB 79       BIT 7,C
  938D  C0          RET NZ
  938E  DD 36 50 00 LD (IX+80),0x00
  9392  C9          RET

; --- L9393 ---
  9393  DD E5       PUSH IX

; --- L9395 ---
  9395  C5          PUSH BC
  9396  CD 06 43    CALL L4306
  9399  CD A5 4D    CALL L4DA5
  939C  CD A5 4A    CALL L4AA5
  939F  CD 5F 44    CALL L445F
  93A2  CD 49 46    CALL L4649
  93A5  C1          POP BC
  93A6  10 ED       DJNZ L9395
  93A8  DD E1       POP IX
  93AA  C9          RET
  93AB  DB 0xBB, 0x93, 0xBF, 0x93, 0xC6, 0x93, 0xCD, 0x93 ; ........
  93B3  DB 0xD1, 0x93, 0xD5, 0x93, 0xDC, 0x93, 0xE0, 0x93 ; ........
  93BB  DB 0x04, 0x30, 0x02, 0x00, 0x04, 0x20, 0x03, 0x02 ; .0... ..
  93C3  DB 0x20, 0x02, 0x00, 0x04, 0x1C, 0x02, 0x04, 0x30 ;  ......0
  93CB  DB 0x04, 0x00, 0x04, 0x28, 0x05, 0x00, 0x05, 0x40 ; ...(...@
  93D3  DB 0x0E, 0x00, 0x04, 0x10, 0x0A, 0x03, 0x20, 0x05 ; ...... .
  93DB  DB 0x00, 0x02, 0x20, 0x08, 0x00, 0x03, 0x20, 0x08 ; .. ... .
  93E3  DB 0x00                                     ; .

; --- L93E4 ---
  93E4  11 B2 BC    LD DE,0xbcb2

; --- L93E7 ---
  93E7  DD E5       PUSH IX
  93E9  FD 21 E0 E2 LD IY,0xe2e0
  93ED  FD 36 00 08 LD (IY+0),0x08
  93F1  CD EF 95    CALL L95EF
  93F4  FD 36 00 80 LD (IY+0),0x80
  93F8  DD E1       POP IX
  93FA  DD 36 50 02 LD (IX+80),0x02
  93FE  DD 36 53 05 LD (IX+83),0x05
  9402  C9          RET
  9403  DB 0xFF, 0xFF                               ; ..

; --- L9405 ---
  9405  97          SUB A
  9406  32 10 E7    LD (0xe710),A
  9409  32 11 E7    LD (0xe711),A

; --- L940C ---
  940C  E5          PUSH HL
  940D  21 C0 E2    LD HL,0xe2c0
  9410  11 04 00    LD DE,0x0004
  9413  06 10       LD B,0x10

; --- L9415 ---
  9415  36 80       LD (HL),0x80
  9417  19          ADD HL,DE
  9418  10 FB       DJNZ L9415
  941A  E1          POP HL

; --- L941B ---
  941B  F3          DI
  941C  5E          LD E,(HL)
  941D  23          INC HL
  941E  56          LD D,(HL)
  941F  23          INC HL
  9420  ED 53 06 E7 LD (0xe706),DE
  9424  1B          DEC DE
  9425  ED 53 02 E7 LD (0xe702),DE
  9429  22 04 E7    LD (0xe704),HL
  942C  21 00 E7    LD HL,0xe700
  942F  CB 86       RES 0,(HL)
  9431  FB          EI
  9432  C9          RET

; --- L9433 ---
  9433  7C          LD A,H
  9434  B5          OR L
  9435  C8          RET Z
  9436  CD 44 94    CALL L9444
  9439  32 01 E7    LD (0xe701),A
  943C  E5          PUSH HL
  943D  CD 68 4C    CALL L4C68
  9440  E1          POP HL
  9441  C3 1B 94    JP L941B

; --- L9444 ---
  9444  E5          PUSH HL
  9445  21 5C 94    LD HL,0x945c
  9448  06 08       LD B,0x08

; --- L944A ---
  944A  5E          LD E,(HL)
  944B  23          INC HL
  944C  56          LD D,(HL)
  944D  23          INC HL
  944E  E3          EX (SP),HL
  944F  E5          PUSH HL
  9450  A7          AND A
  9451  ED 52       SBC HL,DE
  9453  E1          POP HL
  9454  E3          EX (SP),HL
  9455  30 02       JR NC,L9459
  9457  10 F1       DJNZ L944A

; --- L9459 ---
  9459  78          LD A,B
  945A  E1          POP HL
  945B  C9          RET
  945C  DB 0xA5, 0xB7, 0x1A, 0xB6, 0xFD, 0xB3, 0xDE, 0xB1 ; ........
  9464  DB 0x1F, 0xAF, 0x61, 0xAD, 0xEF, 0xAA, 0x51, 0xA7 ; ..a...Q.
  946C  DB 0x5C, 0xA6                               ; \.

; --- L946E ---
  946E  DD E5       PUSH IX
  9470  DD 21 00 E7 LD IX,0xe700
  9474  06 18       LD B,0x18

; --- L9476 ---
  9476  C5          PUSH BC
  9477  CD C3 94    CALL L94C3
  947A  C1          POP BC
  947B  10 F9       DJNZ L9476
  947D  DD E1       POP IX
  947F  C9          RET

; --- L9480 ---
  9480  3A 02 E1    LD A,(0xe102)
  9483  CB 6F       BIT 5,A
  9485  C0          RET NZ
  9486  DD 21 00 E7 LD IX,0xe700
  948A  DD CB 00 8E RES 1,(IX+0)
  948E  3A 50 E1    LD A,(0xe150)
  9491  E6 03       AND 0x03
  9493  DD 7E 10    LD A,(IX+16)
  9496  20 1D       JR NZ,L94B5
  9498  DD BE 12    CP (IX+18)
  949B  28 18       JR Z,L94B5
  949D  F5          PUSH AF
  949E  DD 34 13    INC (IX+19)
  94A1  DD 7E 13    LD A,(IX+19)
  94A4  E6 03       AND 0x03
  94A6  28 03       JR Z,L94AB
  94A8  F1          POP AF
  94A9  18 0A       JR L94B5

; --- L94AB ---
  94AB  F1          POP AF
  94AC  38 03       JR C,L94B1
  94AE  3D          DEC A
  94AF  18 01       JR L94B2

; --- L94B1 ---
  94B1  3C          INC A

; --- L94B2 ---
  94B2  DD 77 10    LD (IX+16),A

; --- L94B5 ---
  94B5  DD 86 11    ADD A,(IX+17)
  94B8  DD 77 11    LD (IX+17),A
  94BB  D0          RET NC
  94BC  DD CB 00 56 BIT 2,(IX+0)
  94C0  C2 0E 98    JP NZ,L980E

; --- L94C3 ---
  94C3  DD CB 00 5E BIT 3,(IX+0)
  94C7  C4 E4 9A    CALL NZ,L9AE4
  94CA  2A 02 E7    LD HL,(0xe702)
  94CD  23          INC HL
  94CE  22 02 E7    LD (0xe702),HL

; --- L94D1 ---
  94D1  ED 5B 02 E7 LD DE,(0xe702)
  94D5  2A 06 E7    LD HL,(0xe706)
  94D8  A7          AND A
  94D9  ED 52       SBC HL,DE
  94DB  C2 E3 97    JP NZ,L97E3
  94DE  2A 04 E7    LD HL,(0xe704)
  94E1  7E          LD A,(HL)
  94E2  DD 77 0F    LD (IX+15),A
  94E5  23          INC HL
  94E6  E6 0F       AND 0x0f
  94E8  CD 2E 5C    CALL L5C2E
  94EB  A8          XOR B
  94EC  97          SUB A
  94ED  B3          OR E
  94EE  97          SUB A
  94EF  05          DEC B
  94F0  95          SUB L
  94F1  37          SCF
  94F2  95          SUB L
  94F3  6C          LD L,H
  94F4  95          SUB L
  94F5  A0          AND B
  94F6  95          SUB L
  94F7  78          LD A,B
  94F8  96          SUB (HL)
  94F9  80          ADD A,B
  94FA  96          SUB (HL)
  94FB  99          SBC A,C
  94FC  96          SUB (HL)
  94FD  DE 96       SBC A,0x96
  94FF  E5          PUSH HL
  9500  96          SUB (HL)
  9501  42          LD B,D
  9502  97          SUB A
  9503  7D          LD A,L
  9504  97          SUB A
  9505  7E          LD A,(HL)
  9506  23          INC HL
  9507  47          LD B,A

; --- L9508 ---
  9508  7E          LD A,(HL)
  9509  23          INC HL
  950A  87          ADD A,A
  950B  87          ADD A,A
  950C  87          ADD A,A
  950D  5F          LD E,A
  950E  16 00       LD D,0x00
  9510  FD 21 C0 E2 LD IY,0xe2c0
  9514  FD 19       ADD IY,DE
  9516  7E          LD A,(HL)
  9517  FD 77 00    LD (IY+0),A
  951A  23          INC HL
  951B  7E          LD A,(HL)
  951C  FD 77 01    LD (IY+1),A
  951F  23          INC HL
  9520  7E          LD A,(HL)
  9521  FD 77 02    LD (IY+2),A
  9524  23          INC HL
  9525  7E          LD A,(HL)
  9526  FD 77 03    LD (IY+3),A
  9529  23          INC HL
  952A  FD 36 06 01 LD (IY+6),0x01
  952E  FD 36 07 01 LD (IY+7),0x01
  9532  10 D4       DJNZ L9508
  9534  C3 D5 97    JP L97D5
  9537  DB 0x7E, 0x23, 0x47, 0x7E, 0x23, 0x87, 0x87, 0x87 ; ~#G~#...
  953F  DB 0xC6, 0xC0, 0x5F, 0x16, 0xE2, 0x7E, 0x23, 0x87 ; .._..~#.
  9547  DB 0x87, 0x87, 0xE5, 0xC6, 0xC0, 0x6F, 0x26, 0xE2 ; .....o&.
  954F  DB 0xEB, 0x7E, 0x12, 0x36, 0x80, 0x23, 0x13, 0x0E ; .~.6.#..
  9557  DB 0xFF, 0xED, 0xA0, 0xED, 0xA0, 0xED, 0xA0, 0xED ; ........
  955F  DB 0xA0, 0xED, 0xA0, 0xED, 0xA0, 0xED, 0xA0, 0xE1 ; ........
  9567  DB 0x10, 0xD1, 0xC3, 0xD5, 0x97, 0x46, 0x23, 0x7E ; .....F#~
  956F  DB 0x23, 0x87, 0x87, 0x87, 0x5F, 0x16, 0x00, 0xFD ; #..._...
  9577  DB 0x21, 0xC0, 0xE2, 0xFD, 0x19, 0xFD, 0x7E, 0x00 ; !.....~.
  957F  DB 0x86, 0xFD, 0x77, 0x00, 0x23, 0x7E, 0xFD, 0x77 ; ..w.#~.w
  9587  DB 0x01, 0x23, 0x7E, 0xFD, 0x77, 0x02, 0x23, 0x7E ; .#~.w.#~
  958F  DB 0xFD, 0x77, 0x03, 0x23, 0xFD, 0x36, 0x06, 0x01 ; .w.#.6..
  9597  DB 0xFD, 0x36, 0x07, 0x01, 0x10, 0xD1, 0xC3, 0xD5 ; .6......
  959F  DB 0x97, 0x0E, 0x00, 0xCD, 0xA8, 0x95, 0xC3, 0xD5 ; ........
  95A7  DB 0x97                                     ; .

; --- L95A8 ---
  95A8  46          LD B,(HL)
  95A9  23          INC HL

; --- L95AA ---
  95AA  7E          LD A,(HL)
  95AB  CB 9F       RES 3,A
  95AD  87          ADD A,A
  95AE  87          ADD A,A
  95AF  5F          LD E,A
  95B0  16 00       LD D,0x00
  95B2  FD 21 E0 E2 LD IY,0xe2e0
  95B6  FD 19       ADD IY,DE
  95B8  5E          LD E,(HL)
  95B9  23          INC HL
  95BA  CD C0 95    CALL L95C0
  95BD  10 EB       DJNZ L95AA
  95BF  C9          RET

; --- L95C0 ---
  95C0  7E          LD A,(HL)
  95C1  81          ADD A,C
  95C2  FD 77 00    LD (IY+0),A
  95C5  CB 5B       BIT 3,E
  95C7  28 09       JR Z,L95D2
  95C9  FD CB 00 F6 SET 6,(IY+0)
  95CD  23          INC HL
  95CE  7E          LD A,(HL)
  95CF  FD 77 01    LD (IY+1),A

; --- L95D2 ---
  95D2  23          INC HL
  95D3  5E          LD E,(HL)
  95D4  23          INC HL
  95D5  56          LD D,(HL)
  95D6  23          INC HL
  95D7  FD CB 00 76 BIT 6,(IY+0)
  95DB  20 09       JR NZ,L95E6
  95DD  1A          LD A,(DE)
  95DE  13          INC DE
  95DF  A7          AND A
  95E0  CC ED 95    CALL Z,L95ED
  95E3  FD 77 01    LD (IY+1),A

; --- L95E6 ---
  95E6  FD 73 02    LD (IY+2),E
  95E9  FD 72 03    LD (IY+3),D
  95EC  C9          RET

; --- L95ED ---
  95ED  1A          LD A,(DE)
  95EE  13          INC DE

; --- L95EF ---
  95EF  F5          PUSH AF
  95F0  C5          PUSH BC
  95F1  E5          PUSH HL
  95F2  1A          LD A,(DE)
  95F3  13          INC DE
  95F4  4F          LD C,A
  95F5  E6 1F       AND 0x1f
  95F7  47          LD B,A
  95F8  CB 79       BIT 7,C
  95FA  28 0A       JR Z,L9606
  95FC  21 80 E7    LD HL,0xe780
  95FF  22 1E E7    LD (0xe71e),HL
  9602  97          SUB A
  9603  32 51 E1    LD (0xe151),A

; --- L9606 ---
  9606  C5          PUSH BC
  9607  CD 22 9B    CALL L9B22
  960A  30 16       JR NC,L9622
  960C  13          INC DE
  960D  13          INC DE
  960E  13          INC DE
  960F  CB 71       BIT 6,C
  9611  CA 62 96    JP Z,L9662
  9614  DD 34 1D    INC (IX+29)
  9617  CB 69       BIT 5,C
  9619  CA 62 96    JP Z,L9662
  961C  DD 34 1D    INC (IX+29)
  961F  C3 62 96    JP L9662

; --- L9622 ---
  9622  CB 79       BIT 7,C
  9624  28 14       JR Z,L963A
  9626  EB          EX DE,HL
  9627  E5          PUSH HL
  9628  2A 1E E7    LD HL,(0xe71e)
  962B  73          LD (HL),E
  962C  23          INC HL
  962D  72          LD (HL),D
  962E  23          INC HL
  962F  23          INC HL
  9630  23          INC HL
  9631  22 1E E7    LD (0xe71e),HL
  9634  21 51 E1    LD HL,0xe151
  9637  34          INC (HL)
  9638  E1          POP HL
  9639  EB          EX DE,HL

; --- L963A ---
  963A  1A          LD A,(DE)
  963B  13          INC DE
  963C  77          LD (HL),A
  963D  23          INC HL
  963E  1A          LD A,(DE)
  963F  13          INC DE
  9640  77          LD (HL),A
  9641  23          INC HL
  9642  1A          LD A,(DE)
  9643  13          INC DE
  9644  47          LD B,A
  9645  FD 7E 00    LD A,(IY+0)
  9648  87          ADD A,A
  9649  87          ADD A,A
  964A  87          ADD A,A
  964B  80          ADD A,B
  964C  D6 20       SUB 0x20
  964E  77          LD (HL),A
  964F  CB 71       BIT 6,C
  9651  28 0F       JR Z,L9662
  9653  23          INC HL
  9654  DD 7E 1D    LD A,(IX+29)
  9657  77          LD (HL),A
  9658  DD 34 1D    INC (IX+29)
  965B  CB 69       BIT 5,C
  965D  28 03       JR Z,L9662
  965F  DD 34 1D    INC (IX+29)

; --- L9662 ---
  9662  C1          POP BC
  9663  10 A1       DJNZ L9606
  9665  CB 79       BIT 7,C
  9667  28 0B       JR Z,L9674
  9669  3A 51 E1    LD A,(0xe151)
  966C  32 52 E1    LD (0xe152),A
  966F  3E 01       LD A,0x01
  9671  32 50 E1    LD (0xe150),A

; --- L9674 ---
  9674  E1          POP HL
  9675  C1          POP BC
  9676  F1          POP AF
  9677  C9          RET
  9678  DB 0x7E, 0x32, 0x1C, 0xE7, 0x23, 0xC3, 0xD5, 0x97 ; ~2..#...
  9680  DB 0x46, 0x23, 0x7E, 0x23, 0x87, 0x87, 0x87, 0x5F ; F#~#..._
  9688  DB 0x16, 0x00, 0xFD, 0x21, 0xC0, 0xE2, 0xFD, 0x19 ; ...!....
  9690  DB 0xFD, 0x36, 0x00, 0x80, 0x10, 0xEC, 0xC3, 0xD5 ; .6......
  9698  DB 0x97, 0x5E, 0x23, 0x56, 0x23, 0xED, 0x53, 0x20 ; .^#V#.S 
  96A0  DB 0xE7, 0xDD, 0x36, 0x1D, 0x00, 0xE5, 0x3E, 0x96 ; ..6...>.
  96A8  DB 0x32, 0x5E, 0xE1, 0x21, 0x02, 0xE1, 0xCB, 0xE6 ; 2^.!....
  96B0  DB 0xFD, 0x21, 0x80, 0xE1, 0xFD, 0x36, 0x0A, 0x08 ; .!...6..
  96B8  DB 0xFD, 0x36, 0x22, 0x11, 0x21, 0x48, 0x39, 0xCD ; .6".!H9.
  96C0  DB 0x25, 0x5C, 0x20, 0x52, 0x4F, 0x55, 0x4E, 0x44 ; %\ ROUND
  96C8  DB 0x20, 0x00, 0xDD, 0x7E, 0x01, 0xC6, 0x30, 0xCD ;  ..~..0.
  96D0  DB 0xFC, 0x5B, 0x3E, 0x20, 0xCD, 0xFC, 0x5B, 0xCD ; .[> ..[.
  96D8  DB 0xF8, 0x42, 0xE1, 0xC3, 0xD5, 0x97, 0x5E, 0x23 ; .B....^#
  96E0  DB 0x56, 0xEB, 0xC3, 0x33, 0x94, 0x7E, 0xDD, 0x77 ; V..3.~.w
  96E8  DB 0x23, 0x23, 0xE5, 0xCD, 0xED, 0x42, 0x21, 0xD0 ; ##...B!.
  96F0  DB 0x21, 0x01, 0x05, 0x00, 0xCD, 0x0A, 0x97, 0x11 ; !.......
  96F8  DB 0x3E, 0x97, 0x21, 0x38, 0x25, 0x01, 0x04, 0x01 ; >.!8%...
  9700  DB 0xCD, 0x0A, 0x97, 0xCD, 0xF8, 0x42, 0xE1, 0xC3 ; .....B..
  9708  DB 0xD5, 0x97, 0x3E, 0x03, 0x08, 0xCD, 0x53, 0x00 ; ..>...S.
  9710  DB 0xC5, 0xD5, 0xE5, 0x60, 0x06, 0x08, 0xCB, 0x0C ; ...`....
  9718  DB 0x20, 0x05, 0xDD, 0x7E, 0x23, 0x18, 0x0A, 0x1A ;  ..~#...
  9720  DB 0x47, 0xDD, 0x7E, 0x23, 0xE6, 0x0F, 0xB0, 0x06 ; G.~#....
  9728  DB 0x08, 0xCD, 0xFC, 0x5B, 0x10, 0xFB, 0x13, 0x0D ; ...[....
  9730  DB 0x20, 0xE2, 0x01, 0x00, 0x08, 0xE1, 0x09, 0xD1 ;  .......
  9738  DB 0xC1, 0x08, 0x3D, 0x20, 0xCF, 0xC9, 0x00, 0x00 ; ..= ....
  9740  DB 0x70, 0x50, 0x11, 0x55, 0xE1, 0x01, 0x04, 0x00 ; pP.U....
  9748  DB 0xED, 0xB0, 0x97, 0x32, 0x54, 0xE1, 0x3A, 0x57 ; ...2T.:W
  9750  DB 0xE1, 0xE6, 0x1F, 0xEB, 0x4F, 0x06, 0x00, 0x21 ; ....O..!
  9758  DB 0x6C, 0x97, 0x09, 0x7E, 0x32, 0x53, 0xE1, 0xEB ; l..~2S..
  9760  DB 0x48, 0xFD, 0x21, 0xE0, 0xE2, 0x58, 0xCD, 0xC0 ; H.!..X..
  9768  DB 0x95, 0xC3, 0xD5, 0x97, 0x00, 0x02, 0x02, 0x00 ; ........
  9770  DB 0x03, 0x03, 0x02, 0x03, 0x03, 0x03, 0x04, 0x01 ; ........
  9778  DB 0x00, 0x00, 0x00, 0x07, 0x03, 0x7E, 0xEB, 0x21 ; .....~.!
  9780  DB 0x32, 0xE1, 0xCB, 0x7F, 0x20, 0x08, 0x86, 0x77 ; 2... ..w
  9788  DB 0x30, 0x14, 0x36, 0xFF, 0x18, 0x10, 0x86, 0x77 ; 0.6....w
  9790  DB 0x38, 0x02, 0x36, 0x00, 0x21, 0x2E, 0xE1, 0x1A ; 8.6.!...
  9798  DB 0x86, 0x77, 0x38, 0x02, 0x36, 0x00, 0x21, 0x2D ; .w8.6.!-
  97A0  DB 0xE1, 0xCB, 0xC6, 0xEB, 0x23, 0xC3, 0xD5, 0x97 ; ....#...
  97A8  DB 0x7E, 0x32, 0x2D, 0xE1, 0x23, 0xCB, 0x57, 0x20 ; ~2-.#.W 
  97B0  DB 0x02, 0x18, 0x22, 0x46, 0x23, 0xCD, 0xBC, 0x97 ; .."F#...
  97B8  DB 0x10, 0xFB, 0x18, 0x19, 0xC5, 0xE5, 0xCD, 0x22 ; ......."
  97C0  DB 0x9B, 0xD1, 0x30, 0x06, 0xEB, 0x23, 0x23, 0x23 ; ..0..###
  97C8  DB 0x18, 0x09, 0x36, 0x45, 0x23, 0xEB, 0x01, 0x03 ; ..6E#...
  97D0  DB 0x00, 0xED, 0xB0, 0xC1, 0xC9             ; .....

; --- L97D5 ---
  97D5  5E          LD E,(HL)
  97D6  23          INC HL
  97D7  56          LD D,(HL)
  97D8  23          INC HL
  97D9  22 04 E7    LD (0xe704),HL
  97DC  ED 53 06 E7 LD (0xe706),DE
  97E0  C3 D1 94    JP L94D1

; --- L97E3 ---
  97E3  DD 4E 14    LD C,(IX+20)
  97E6  2A 15 E7    LD HL,(0xe715)
  97E9  0D          DEC C
  97EA  FA F3 97    JP M,L97F3
  97ED  11 E8 FF    LD DE,0xffe8
  97F0  19          ADD HL,DE
  97F1  18 05       JR L97F8

; --- L97F3 ---
  97F3  0E 17       LD C,0x17
  97F5  21 28 EA    LD HL,0xea28

; --- L97F8 ---
  97F8  DD CB 00 86 RES 0,(IX+0)
  97FC  DD 71 14    LD (IX+20),C
  97FF  22 15 E7    LD (0xe715),HL
  9802  CD 88 98    CALL L9888
  9805  DD CB 00 C6 SET 0,(IX+0)
  9809  DD CB 00 CE SET 1,(IX+0)
  980D  C9          RET

; --- L980E ---
  980E  DD CB 00 5E BIT 3,(IX+0)
  9812  28 07       JR Z,L981B
  9814  CD E4 9A    CALL L9AE4
  9817  DD 36 0D 0C LD (IX+13),0x0c

; --- L981B ---
  981B  DD 7E 0D    LD A,(IX+13)
  981E  A7          AND A
  981F  C8          RET Z
  9820  DD 35 0D    DEC (IX+13)
  9823  3D          DEC A
  9824  CA 52 98    JP Z,L9852
  9827  21 00 00    LD HL,0x0000
  982A  06 18       LD B,0x18

; --- L982C ---
  982C  C5          PUSH BC
  982D  E5          PUSH HL
  982E  06 00       LD B,0x00
  9830  DD 4E 0D    LD C,(IX+13)
  9833  11 00 E8    LD DE,0xe800
  9836  19          ADD HL,DE
  9837  5D          LD E,L
  9838  54          LD D,H
  9839  23          INC HL
  983A  ED B0       LDIR
  983C  E1          POP HL
  983D  E5          PUSH HL
  983E  11 17 E8    LD DE,0xe817
  9841  19          ADD HL,DE
  9842  5D          LD E,L
  9843  54          LD D,H
  9844  2B          DEC HL
  9845  DD 4E 0D    LD C,(IX+13)
  9848  ED B8       LDDR
  984A  E1          POP HL
  984B  C1          POP BC
  984C  11 18 00    LD DE,0x0018
  984F  19          ADD HL,DE
  9850  10 DA       DJNZ L982C

; --- L9852 ---
  9852  21 00 EB    LD HL,0xeb00
  9855  06 00       LD B,0x00
  9857  DD 4E 0D    LD C,(IX+13)
  985A  CD 6E 98    CALL L986E
  985D  79          LD A,C
  985E  2F          CPL
  985F  C6 18       ADD A,0x18
  9861  4F          LD C,A
  9862  CD 6E 98    CALL L986E
  9865  DD CB 00 C6 SET 0,(IX+0)
  9869  DD CB 00 CE SET 1,(IX+0)
  986D  C9          RET

; --- L986E ---
  986E  E5          PUSH HL
  986F  C5          PUSH BC
  9870  09          ADD HL,BC
  9871  EB          EX DE,HL
  9872  21 00 E8    LD HL,0xe800
  9875  09          ADD HL,BC
  9876  06 18       LD B,0x18

; --- L9878 ---
  9878  C5          PUSH BC
  9879  1A          LD A,(DE)
  987A  77          LD (HL),A
  987B  01 18 00    LD BC,0x0018
  987E  09          ADD HL,BC
  987F  EB          EX DE,HL
  9880  09          ADD HL,BC
  9881  EB          EX DE,HL
  9882  C1          POP BC
  9883  10 F3       DJNZ L9878
  9885  C1          POP BC
  9886  E1          POP HL
  9887  C9          RET

; --- L9888 ---
  9888  3A 02 E7    LD A,(0xe702)
  988B  E6 03       AND 0x03
  988D  4F          LD C,A
  988E  87          ADD A,A
  988F  81          ADD A,C
  9890  87          ADD A,A
  9891  87          ADD A,A
  9892  87          ADD A,A
  9893  4F          LD C,A
  9894  06 00       LD B,0x00
  9896  EB          EX DE,HL
  9897  21 44 A4    LD HL,0xa444
  989A  09          ADD HL,BC
  989B  22 AE E2    LD (0xe2ae),HL
  989E  3A 02 E7    LD A,(0xe702)
  98A1  E6 07       AND 0x07
  98A3  6F          LD L,A
  98A4  87          ADD A,A
  98A5  85          ADD A,L
  98A6  6F          LD L,A
  98A7  26 00       LD H,0x00
  98A9  29          ADD HL,HL
  98AA  29          ADD HL,HL
  98AB  29          ADD HL,HL
  98AC  EB          EX DE,HL
  98AD  21 A4 A4    LD HL,0xa4a4
  98B0  19          ADD HL,DE
  98B1  22 B0 E2    LD (0xe2b0),HL
  98B4  21 64 A5    LD HL,0xa564
  98B7  19          ADD HL,DE
  98B8  22 B2 E2    LD (0xe2b2),HL
  98BB  DD 7E 1C    LD A,(IX+28)
  98BE  DD 77 17    LD (IX+23),A
  98C1  97          SUB A
  98C2  DD 77 19    LD (IX+25),A
  98C5  DD 77 18    LD (IX+24),A
  98C8  21 40 EA    LD HL,0xea40
  98CB  22 1A E7    LD (0xe71a),HL
  98CE  FD 21 C0 E2 LD IY,0xe2c0
  98D2  06 04       LD B,0x04

; --- L98D4 ---
  98D4  FD 7E 00    LD A,(IY+0)
  98D7  FE 80       CP 0x80
  98D9  CA C9 99    JP Z,L99C9
  98DC  C5          PUSH BC
  98DD  FD 35 06    DEC (IY+6)
  98E0  20 4C       JR NZ,L992E
  98E2  FD 7E 07    LD A,(IY+7)
  98E5  A7          AND A
  98E6  28 3E       JR Z,L9926
  98E8  FD 35 07    DEC (IY+7)
  98EB  20 39       JR NZ,L9926
  98ED  FD 6E 02    LD L,(IY+2)
  98F0  FD 66 03    LD H,(IY+3)
  98F3  23          INC HL
  98F4  23          INC HL
  98F5  23          INC HL

; --- L98F6 ---
  98F6  7E          LD A,(HL)
  98F7  FD 77 07    LD (IY+7),A
  98FA  23          INC HL
  98FB  FD 75 02    LD (IY+2),L
  98FE  FD 74 03    LD (IY+3),H

; --- L9901 ---
  9901  7E          LD A,(HL)
  9902  FD 77 06    LD (IY+6),A
  9905  23          INC HL
  9906  5E          LD E,(HL)
  9907  23          INC HL
  9908  56          LD D,(HL)
  9909  EB          EX DE,HL
  990A  A7          AND A
  990B  28 E9       JR Z,L98F6
  990D  FE FF       CP 0xff
  990F  20 0D       JR NZ,L991E
  9911  FD 7E 07    LD A,(IY+7)
  9914  FD 86 00    ADD A,(IY+0)
  9917  FD 77 00    LD (IY+0),A
  991A  EB          EX DE,HL
  991B  2B          DEC HL
  991C  18 D8       JR L98F6

; --- L991E ---
  991E  FD 75 04    LD (IY+4),L
  9921  FD 74 05    LD (IY+5),H
  9924  18 08       JR L992E

; --- L9926 ---
  9926  FD 6E 02    LD L,(IY+2)
  9929  FD 66 03    LD H,(IY+3)
  992C  18 D3       JR L9901

; --- L992E ---
  992E  FD 7E 00    LD A,(IY+0)
  9931  FE 28       CP 0x28
  9933  D2 C4 99    JP NC,L99C4
  9936  47          LD B,A
  9937  DD 7E 19    LD A,(IX+25)
  993A  4F          LD C,A
  993B  B8          CP B
  993C  30 77       JR NC,L99B5
  993E  FD 7E 01    LD A,(IY+1)
  9941  0F          RRCA
  9942  0F          RRCA
  9943  0F          RRCA
  9944  E6 0E       AND 0x0e
  9946  5F          LD E,A
  9947  16 00       LD D,0x00
  9949  21 AC E2    LD HL,0xe2ac
  994C  19          ADD HL,DE
  994D  5E          LD E,(HL)
  994E  23          INC HL
  994F  56          LD D,(HL)
  9950  EB          EX DE,HL
  9951  59          LD E,C
  9952  16 00       LD D,0x00
  9954  19          ADD HL,DE
  9955  78          LD A,B
  9956  91          SUB C
  9957  C5          PUSH BC
  9958  4F          LD C,A
  9959  06 00       LD B,0x00
  995B  ED 5B 1A E7 LD DE,(0xe71a)
  995F  ED B0       LDIR
  9961  C1          POP BC

; --- L9962 ---
  9962  48          LD C,B
  9963  DD 70 18    LD (IX+24),B
  9966  FD 6E 04    LD L,(IY+4)
  9969  FD 66 05    LD H,(IY+5)
  996C  46          LD B,(HL)
  996D  23          INC HL
  996E  7E          LD A,(HL)
  996F  23          INC HL
  9970  A7          AND A
  9971  F5          PUSH AF
  9972  28 21       JR Z,L9995
  9974  C5          PUSH BC
  9975  FD CB 01 7E BIT 7,(IY+1)
  9979  28 14       JR Z,L998F
  997B  47          LD B,A
  997C  0E 17       LD C,0x17
  997E  FD CB 01 5E BIT 3,(IY+1)
  9982  28 02       JR Z,L9986
  9984  0E 2E       LD C,0x2e

; --- L9986 ---
  9986  7E          LD A,(HL)
  9987  81          ADD A,C
  9988  12          LD (DE),A
  9989  23          INC HL
  998A  13          INC DE
  998B  10 F9       DJNZ L9986
  998D  18 05       JR L9994

; --- L998F ---
  998F  4F          LD C,A
  9990  06 00       LD B,0x00
  9992  ED B0       LDIR

; --- L9994 ---
  9994  C1          POP BC

; --- L9995 ---
  9995  ED 53 1A E7 LD (0xe71a),DE
  9999  F1          POP AF
  999A  81          ADD A,C
  999B  DD 77 19    LD (IX+25),A
  999E  FD 75 04    LD (IY+4),L
  99A1  FD 74 05    LD (IY+5),H
  99A4  FD 7E 00    LD A,(IY+0)
  99A7  80          ADD A,B
  99A8  FD 77 00    LD (IY+0),A
  99AB  C1          POP BC
  99AC  FD 7E 01    LD A,(IY+1)
  99AF  DD 77 17    LD (IX+23),A
  99B2  C3 C9 99    JP L99C9

; --- L99B5 ---
  99B5  2A 1A E7    LD HL,(0xe71a)
  99B8  90          SUB B
  99B9  28 06       JR Z,L99C1
  99BB  2F          CPL
  99BC  3C          INC A
  99BD  5F          LD E,A
  99BE  16 FF       LD D,0xff
  99C0  19          ADD HL,DE

; --- L99C1 ---
  99C1  EB          EX DE,HL
  99C2  18 9E       JR L9962

; --- L99C4 ---
  99C4  FD 36 00 80 LD (IY+0),0x80
  99C8  C1          POP BC

; --- L99C9 ---
  99C9  11 08 00    LD DE,0x0008
  99CC  FD 19       ADD IY,DE
  99CE  05          DEC B
  99CF  C2 D4 98    JP NZ,L98D4
  99D2  DD 7E 19    LD A,(IX+25)
  99D5  FE 20       CP 0x20
  99D7  30 1E       JR NC,L99F7
  99D9  4F          LD C,A
  99DA  06 00       LD B,0x00
  99DC  DD 7E 17    LD A,(IX+23)
  99DF  E6 07       AND 0x07
  99E1  87          ADD A,A
  99E2  5F          LD E,A
  99E3  50          LD D,B
  99E4  21 AC E2    LD HL,0xe2ac
  99E7  19          ADD HL,DE
  99E8  5E          LD E,(HL)
  99E9  23          INC HL
  99EA  56          LD D,(HL)
  99EB  EB          EX DE,HL
  99EC  09          ADD HL,BC
  99ED  ED 5B 1A E7 LD DE,(0xe71a)
  99F1  3E 20       LD A,0x20
  99F3  91          SUB C
  99F4  4F          LD C,A
  99F5  ED B0       LDIR

; --- L99F7 ---
  99F7  FD 21 E0 E2 LD IY,0xe2e0
  99FB  06 08       LD B,0x08

; --- L99FD ---
  99FD  FD 7E 00    LD A,(IY+0)
  9A00  FE 80       CP 0x80
  9A02  28 50       JR Z,L9A54
  9A04  CB 77       BIT 6,A
  9A06  28 1E       JR Z,L9A26
  9A08  FD 35 01    DEC (IY+1)
  9A0B  20 47       JR NZ,L9A54
  9A0D  FD 5E 02    LD E,(IY+2)
  9A10  FD 56 03    LD D,(IY+3)
  9A13  1A          LD A,(DE)
  9A14  13          INC DE
  9A15  A7          AND A
  9A16  CC ED 95    CALL Z,L95ED
  9A19  FD 77 01    LD (IY+1),A
  9A1C  EB          EX DE,HL
  9A1D  FD CB 00 B6 RES 6,(IY+0)
  9A21  FD 7E 00    LD A,(IY+0)
  9A24  18 06       JR L9A2C

; --- L9A26 ---
  9A26  FD 6E 02    LD L,(IY+2)
  9A29  FD 66 03    LD H,(IY+3)

; --- L9A2C ---
  9A2C  86          ADD A,(HL)
  9A2D  23          INC HL
  9A2E  C5          PUSH BC
  9A2F  EB          EX DE,HL
  9A30  4F          LD C,A
  9A31  06 00       LD B,0x00
  9A33  21 40 EA    LD HL,0xea40
  9A36  09          ADD HL,BC
  9A37  EB          EX DE,HL
  9A38  7E          LD A,(HL)
  9A39  4F          LD C,A
  9A3A  23          INC HL
  9A3B  A7          AND A
  9A3C  28 06       JR Z,L9A44
  9A3E  FE FE       CP 0xfe
  9A40  30 26       JR NC,L9A68
  9A42  ED B0       LDIR

; --- L9A44 ---
  9A44  C1          POP BC
  9A45  FD 75 02    LD (IY+2),L
  9A48  FD 74 03    LD (IY+3),H
  9A4B  FD 35 01    DEC (IY+1)
  9A4E  20 04       JR NZ,L9A54
  9A50  FD 36 00 80 LD (IY+0),0x80

; --- L9A54 ---
  9A54  11 04 00    LD DE,0x0004
  9A57  FD 19       ADD IY,DE
  9A59  10 A2       DJNZ L99FD
  9A5B  21 48 EA    LD HL,0xea48
  9A5E  ED 5B 15 E7 LD DE,(0xe715)
  9A62  01 18 00    LD BC,0x0018
  9A65  ED B0       LDIR
  9A67  C9          RET

; --- L9A68 ---
  9A68  FD 4E 00    LD C,(IY+0)
  9A6B  F5          PUSH AF
  9A6C  FD E5       PUSH IY
  9A6E  CD A8 95    CALL L95A8
  9A71  FD E1       POP IY
  9A73  F1          POP AF
  9A74  20 CE       JR NZ,L9A44
  9A76  C1          POP BC
  9A77  18 DB       JR L9A54
  9A79  DB 0xDD, 0x21, 0x00, 0xE7, 0xDD, 0xCB, 0x00, 0x46 ; .!.....F
  9A81  DB 0xC8, 0xFD, 0x21, 0x80, 0xE1, 0xDD, 0xCB, 0x00 ; ..!.....
  9A89  DB 0x86, 0xED, 0x4B, 0x07, 0x00, 0xED, 0x5B, 0x15 ; ..K...[.
  9A91  DB 0xE7, 0x21, 0x00, 0x38, 0xDD, 0x7E, 0x14, 0x2F ; .!.8.~./
  9A99  DB 0xC6, 0x19, 0xCD, 0xA6, 0x9A, 0xDD, 0x7E, 0x14 ; ......~.
  9AA1  DB 0xA7, 0xC8, 0x11, 0x00, 0xE8, 0x47, 0xCD, 0x53 ; .....G.S
  9AA9  DB 0x00, 0xC5, 0xFD, 0x7E, 0x00, 0xA7, 0x20, 0x14 ; ...~.. .
  9AB1  DB 0x06, 0x18, 0xF3, 0x1A, 0xED, 0x79, 0xFB, 0x13 ; .....y..
  9AB9  DB 0x10, 0xF8, 0x01, 0x20, 0x00, 0x09, 0xFD, 0x23 ; ... ...#
  9AC1  DB 0xC1, 0x10, 0xE3, 0xC9, 0x47, 0xE5, 0xC5, 0xD5 ; ....G...
  9AC9  DB 0xF3, 0x1A, 0xED, 0x79, 0xFB, 0x13, 0x10, 0xF8 ; ...y....
  9AD1  DB 0xFD, 0x4E, 0x18, 0x09, 0xCD, 0x53, 0x00, 0xD1 ; .N...S..
  9AD9  DB 0xEB, 0x09, 0xEB, 0x3E, 0x18, 0x91, 0xC1, 0x47 ; ...>...G
  9AE1  DB 0xE1, 0x18, 0xCF                         ; ...

; --- L9AE4 ---
  9AE4  CD F8 42    CALL L42F8
  9AE7  3A 00 E7    LD A,(0xe700)
  9AEA  CB 47       BIT 0,A
  9AEC  20 F6       JR NZ,L9AE4
  9AEE  CB 9F       RES 3,A
  9AF0  32 00 E7    LD (0xe700),A
  9AF3  ED 4B 06 00 LD BC,(0x0006)
  9AF7  CD ED 42    CALL L42ED
  9AFA  97          SUB A
  9AFB  32 14 E7    LD (0xe714),A
  9AFE  11 00 E8    LD DE,0xe800
  9B01  ED 53 15 E7 LD (0xe715),DE
  9B05  21 00 38    LD HL,0x3800
  9B08  06 18       LD B,0x18

; --- L9B0A ---
  9B0A  CD 50 00    CALL 0x0050   ; BIOS:SETRD
  9B0D  C5          PUSH BC
  9B0E  06 18       LD B,0x18

; --- L9B10 ---
  9B10  F3          DI
  9B11  ED 78       IN A,(C)
  9B13  FB          EI
  9B14  12          LD (DE),A
  9B15  13          INC DE
  9B16  10 F8       DJNZ L9B10
  9B18  01 20 00    LD BC,0x0020
  9B1B  09          ADD HL,BC
  9B1C  C1          POP BC
  9B1D  10 EB       DJNZ L9B0A
  9B1F  C3 F8 42    JP L42F8

; --- L9B22 ---
  9B22  C5          PUSH BC
  9B23  D5          PUSH DE
  9B24  21 20 E6    LD HL,0xe620
  9B27  06 15       LD B,0x15
  9B29  11 E0 FF    LD DE,0xffe0

; --- L9B2C ---
  9B2C  7E          LD A,(HL)
  9B2D  A7          AND A
  9B2E  28 31       JR Z,L9B61
  9B30  19          ADD HL,DE
  9B31  10 F9       DJNZ L9B2C
  9B33  11 20 00    LD DE,0x0020
  9B36  06 15       LD B,0x15

; --- L9B38 ---
  9B38  19          ADD HL,DE
  9B39  7E          LD A,(HL)
  9B3A  E6 7F       AND 0x7f
  9B3C  FE 14       CP 0x14
  9B3E  28 21       JR Z,L9B61
  9B40  FE 25       CP 0x25
  9B42  28 1D       JR Z,L9B61
  9B44  FE 26       CP 0x26
  9B46  28 19       JR Z,L9B61
  9B48  10 EE       DJNZ L9B38
  9B4A  11 E0 FF    LD DE,0xffe0
  9B4D  06 15       LD B,0x15

; --- L9B4F ---
  9B4F  7E          LD A,(HL)
  9B50  E6 7F       AND 0x7f
  9B52  FE 27       CP 0x27
  9B54  28 07       JR Z,L9B5D
  9B56  FE 46       CP 0x46
  9B58  30 03       JR NC,L9B5D
  9B5A  A7          AND A
  9B5B  18 04       JR L9B61

; --- L9B5D ---
  9B5D  19          ADD HL,DE
  9B5E  10 EF       DJNZ L9B4F
  9B60  37          SCF

; --- L9B61 ---
  9B61  D1          POP DE
  9B62  C1          POP BC
  9B63  C9          RET
  9B64  DB 0x00, 0x01, 0x6D, 0x00, 0x01, 0x6B, 0x00, 0x01 ; ..m..k..
  9B6C  DB 0x69, 0x00, 0x01, 0x67, 0x00, 0x01, 0x5D, 0x00 ; i..g..].
  9B74  DB 0x01, 0x69, 0x00, 0x01, 0x6B, 0x00, 0x01, 0x5B ; .i..k..[
  9B7C  DB 0x00, 0x01, 0x67, 0x00, 0x01, 0x69, 0x00, 0x01 ; ..g..i..
  9B84  DB 0x6B, 0x00, 0x01, 0x69, 0x00, 0x01, 0x6B, 0x00 ; k..i..k.
  9B8C  DB 0x01, 0x69, 0x01, 0x01, 0x67, 0x00, 0x01, 0x69 ; .i..g..i
  9B94  DB 0x00, 0x01, 0x6B, 0x00, 0x01, 0x69, 0x00, 0x01 ; ..k..i..
  9B9C  DB 0x6B, 0x01, 0x01, 0x5B, 0x00, 0x01, 0x5B, 0x00 ; k..[..[.
  9BA4  DB 0x01, 0x6D, 0x01, 0x01, 0x67, 0x01, 0x01, 0x5B ; .m..g..[
  9BAC  DB 0x01, 0x01, 0x5B, 0x02, 0x02, 0x5F, 0x60, 0x03 ; ..[.._`.
  9BB4  DB 0x03, 0x5F, 0x61, 0x60, 0x04, 0x04, 0x5F, 0x60 ; ._a`.._`
  9BBC  DB 0x61, 0x60, 0x00, 0x01, 0x6D, 0x00, 0x01, 0x6B ; a`..m..k
  9BC4  DB 0x00, 0x01, 0x69, 0x00, 0x01, 0x67, 0x00, 0x01 ; ..i..g..
  9BCC  DB 0x6D, 0xFF, 0x01, 0x6B, 0x00, 0x01, 0x6D, 0x00 ; m..k..m.
  9BD4  DB 0x01, 0x6B, 0x00, 0x01, 0x69, 0x00, 0x01, 0x67 ; .k..i..g
  9BDC  DB 0xFF, 0x01, 0x5D, 0x00, 0x01, 0x6D, 0x00, 0x01 ; ..]..m..
  9BE4  DB 0x6B, 0x00, 0x01, 0x69, 0xFF, 0x01, 0x6B, 0x00 ; k..i..k.
  9BEC  DB 0x01, 0x6D, 0x00, 0x01, 0x69, 0xFF, 0x01, 0x6B ; .m..i..k
  9BF4  DB 0xFF, 0x01, 0x5D, 0xFF, 0x01, 0x5D, 0xFE, 0x02 ; ..]..]..
  9BFC  DB 0x63, 0x64, 0xFD, 0x03, 0x63, 0x66, 0x64, 0xFC ; cd..cfd.
  9C04  DB 0x04, 0x63, 0x64, 0x65, 0x64, 0x00, 0x01, 0x6E ; .cded..n
  9C0C  DB 0x00, 0x01, 0x6C, 0x00, 0x01, 0x6A, 0x00, 0x01 ; ..l..j..
  9C14  DB 0x68, 0x00, 0x01, 0x6E, 0x00, 0x01, 0x6C, 0x00 ; h..n..l.
  9C1C  DB 0x01, 0x6A, 0x00, 0x01, 0x6C, 0x00, 0x01, 0x6A ; .j..l..j
  9C24  DB 0x00, 0x01, 0x68, 0x00, 0x01, 0x6E, 0x00, 0x01 ; ..h..n..
  9C2C  DB 0x6C, 0x00, 0x01, 0x6A, 0x00, 0x01, 0x6C, 0x00 ; l..j..l.
  9C34  DB 0x01, 0x6A, 0x01, 0x01, 0x6C, 0x00, 0x01, 0x6E ; .j..l..n
  9C3C  DB 0x00, 0x01, 0x68, 0x00, 0x01, 0x5E, 0x00, 0x01 ; ..h..^..
  9C44  DB 0x6A, 0x01, 0x01, 0x6C, 0x00, 0x01, 0x6E, 0x01 ; j..l..n.
  9C4C  DB 0x01, 0x6C, 0x00, 0x01, 0x6E, 0x00, 0x01, 0x6C ; .l..n..l
  9C54  DB 0x00, 0x01, 0x6A, 0x01, 0x01, 0x6C, 0x01, 0x01 ; ..j..l..
  9C5C  DB 0x5E, 0x01, 0x01, 0x5E, 0x02, 0x02, 0x65, 0x66 ; ^..^..ef
  9C64  DB 0x03, 0x03, 0x65, 0x64, 0x5E, 0x04, 0x04, 0x65 ; ..ed^..e
  9C6C  DB 0x64, 0x65, 0x66, 0x00, 0x01, 0x6A, 0x00, 0x01 ; def..j..
  9C74  DB 0x6C, 0x00, 0x01, 0x6A, 0x00, 0x01, 0x68, 0x00 ; l..j..h.
  9C7C  DB 0x01, 0x6E, 0xFF, 0x01, 0x68, 0x00, 0x01, 0x6A ; .n..h..j
  9C84  DB 0x00, 0x01, 0x6C, 0x00, 0x01, 0x6A, 0x00, 0x01 ; ..l..j..
  9C8C  DB 0x6C, 0xFF, 0x01, 0x5C, 0x00, 0x01, 0x6A, 0xFF ; l..\..j.
  9C94  DB 0x01, 0x68, 0x00, 0x01, 0x6A, 0x00, 0x01, 0x6C ; .h..j..l
  9C9C  DB 0x00, 0x01, 0x6A, 0xFF, 0x01, 0x68, 0xFF, 0x01 ; ..j..h..
  9CA4  DB 0x5C, 0xFF, 0x01, 0x5C, 0xFE, 0x02, 0x61, 0x62 ; \..\..ab
  9CAC  DB 0xFD, 0x03, 0x5C, 0x5F, 0x62, 0xFC, 0x04, 0x61 ; ..\_b..a
  9CB4  DB 0x60, 0x61, 0x62, 0x02, 0x04, 0x96, 0x9C, 0x01 ; `ab.....
  9CBC  DB 0xFF, 0x01, 0x06, 0x15, 0x9C, 0x02, 0x05, 0x39 ; .......9
  9CC4  DB 0x9C, 0xFF, 0xFF, 0x00, 0x00, 0xB7, 0x9C, 0x02 ; ........
  9CCC  DB 0x06, 0xBE, 0x9B, 0x01, 0xFF, 0x02, 0x03, 0xA0 ; ........
  9CD4  DB 0x9B, 0xFF, 0xFF, 0x01, 0x05, 0x70, 0x9B, 0x00 ; .....p..
  9CDC  DB 0x00, 0xCB, 0x9C, 0x03, 0x03, 0x3F, 0x9C, 0xFF ; .....?..
  9CE4  DB 0xFF, 0x03, 0x04, 0x96, 0x9C, 0x01, 0xFF, 0x02 ; ........
  9CEC  DB 0x05, 0x39, 0x9C, 0xFF, 0xFF, 0x02, 0x04, 0x96 ; .9......
  9CF4  DB 0x9C, 0x01, 0xFF, 0x02, 0x06, 0x15, 0x9C, 0x00 ; ........
  9CFC  DB 0x00, 0xDF, 0x9C, 0x02, 0x04, 0xDF, 0x9B, 0x02 ; ........
  9D04  DB 0x05, 0x70, 0x9B, 0x01, 0xFF, 0x03, 0x03, 0xA0 ; .p......
  9D0C  DB 0x9B, 0xFF, 0xFF, 0x03, 0x04, 0xDF, 0x9B, 0x01 ; ........
  9D14  DB 0xFF, 0x02, 0x05, 0x91, 0x9B, 0xFF, 0xFF, 0x00 ; ........
  9D1C  DB 0x00, 0xFF, 0x9C, 0x01, 0x06, 0x6F, 0x9C, 0x01 ; .....o..
  9D24  DB 0x04, 0x96, 0x9C, 0x01, 0xFF, 0x03, 0x06, 0x15 ; ........
  9D2C  DB 0x9C, 0xFF, 0xFF, 0x01, 0x05, 0x81, 0x9C, 0x00 ; ........
  9D34  DB 0x00, 0x1F, 0x9D, 0x01, 0x06, 0xBE, 0x9B, 0x02 ; ........
  9D3C  DB 0x05, 0x70, 0x9B, 0x01, 0x05, 0xD0, 0x9B, 0x02 ; .p......
  9D44  DB 0x04, 0x64, 0x9B, 0x01, 0x04, 0xDF, 0x9B, 0x00 ; .d......
  9D4C  DB 0x00, 0x37, 0x9D, 0x01, 0x03, 0x87, 0x9C, 0x01 ; .7......
  9D54  DB 0xFF, 0x01, 0x04, 0x09, 0x9C, 0xFF, 0xFF, 0x01 ; ........
  9D5C  DB 0x04, 0x96, 0x9C, 0x01, 0xFF, 0x01, 0x04, 0x09 ; ........
  9D64  DB 0x9C, 0xFF, 0xFF, 0x01, 0x02, 0x90, 0x9C, 0x00 ; ........
  9D6C  DB 0x00, 0x4F, 0x9D, 0x01, 0x03, 0xEB, 0x9B, 0x01 ; .O......
  9D74  DB 0x04, 0x64, 0x9B, 0x01, 0x04, 0xDF, 0x9B, 0x01 ; .d......
  9D7C  DB 0x04, 0x64, 0x9B, 0x01, 0x02, 0xCA, 0x9B, 0x00 ; .d......
  9D84  DB 0x00, 0x6F, 0x9D, 0x01, 0x04, 0x96, 0x9C, 0x01 ; .o......
  9D8C  DB 0x03, 0x87, 0x9C, 0x00, 0x00, 0x87, 0x9D, 0x01 ; ........
  9D94  DB 0x04, 0xDF, 0x9B, 0x01, 0x03, 0xEB, 0x9B, 0x00 ; ........
  9D9C  DB 0x00, 0x93, 0x9D, 0x01, 0x02, 0x90, 0x9C, 0x01 ; ........
  9DA4  DB 0x01, 0xA2, 0x9C, 0xFF, 0xFF, 0x01, 0x01, 0xA8 ; ........
  9DAC  DB 0x9C, 0x01, 0xFF, 0x01, 0x01, 0xA2, 0x9C, 0x00 ; ........
  9DB4  DB 0x00, 0x9F, 0x9D, 0x01, 0x02, 0xF4, 0x9B, 0x01 ; ........
  9DBC  DB 0x02, 0xCA, 0x9B, 0xFF, 0xFF, 0x01, 0x01, 0xFA ; ........
  9DC4  DB 0x9B, 0x01, 0xFF, 0x00, 0x00, 0xB7, 0x9D, 0x01 ; ........
  9DCC  DB 0x01, 0xA8, 0x9C, 0xFE, 0xFF, 0x01, 0x01, 0xB1 ; ........
  9DD4  DB 0x9C, 0x02, 0xFF, 0x00, 0x00, 0xCB, 0x9D, 0x01 ; ........
  9DDC  DB 0x01, 0xFA, 0x9B, 0xFE, 0xFF, 0x01, 0x01, 0x03 ; ........
  9DE4  DB 0x9C, 0x02, 0xFF, 0x00, 0x00, 0xDB, 0x9D, 0x01 ; ........
  9DEC  DB 0x06, 0x27, 0x9C, 0x01, 0x04, 0x4E, 0x9C, 0x03 ; .'...N..
  9DF4  DB 0x06, 0x15, 0x9C, 0x01, 0x05, 0x39, 0x9C, 0x00 ; .....9..
  9DFC  DB 0x00, 0xEB, 0x9D, 0x01, 0x06, 0x7F, 0x9B, 0xFF ; ........
  9E04  DB 0xFF, 0x02, 0x05, 0x70, 0x9B, 0x01, 0xFF, 0x01 ; ...p....
  9E0C  DB 0x05, 0x91, 0x9B, 0xFF, 0xFF, 0x02, 0x04, 0x64 ; .......d
  9E14  DB 0x9B, 0x01, 0xFF, 0x01, 0x04, 0x85, 0x9B, 0x00 ; ........
  9E1C  DB 0x00, 0xFF, 0x9D, 0x01, 0x02, 0x48, 0x9C, 0x01 ; .....H..
  9E24  DB 0x04, 0x09, 0x9C, 0x01, 0x03, 0x3F, 0x9C, 0x01 ; .....?..
  9E2C  DB 0x04, 0x09, 0x9C, 0x01, 0x04, 0x4E, 0x9C, 0x00 ; .....N..
  9E34  DB 0x00, 0x1F, 0x9E, 0x01, 0x03, 0xA0, 0x9B, 0xFF ; ........
  9E3C  DB 0xFF, 0x01, 0x04, 0x64, 0x9B, 0x01, 0xFF, 0x01 ; ...d....
  9E44  DB 0x04, 0x85, 0x9B, 0xFF, 0xFF, 0x01, 0x04, 0x64 ; .......d
  9E4C  DB 0x9B, 0x01, 0xFF, 0x01, 0x02, 0x8B, 0x9B, 0x00 ; ........
  9E54  DB 0x00, 0x37, 0x9E, 0x01, 0x04, 0x4E, 0x9C, 0x01 ; .7...N..
  9E5C  DB 0x03, 0x3F, 0x9C, 0x00, 0x00, 0x57, 0x9E, 0x01 ; .?...W..
  9E64  DB 0x04, 0x85, 0x9B, 0x01, 0x03, 0xA0, 0x9B, 0x00 ; ........
  9E6C  DB 0x00, 0x63, 0x9E, 0x01, 0x02, 0x48, 0x9C, 0x01 ; .c...H..
  9E74  DB 0x01, 0x5A, 0x9C, 0x01, 0x01, 0x60, 0x9C, 0x01 ; .Z...`..
  9E7C  DB 0x01, 0x5A, 0x9C, 0x00, 0x00, 0x6F, 0x9E, 0x01 ; .Z...o..
  9E84  DB 0x02, 0xA9, 0x9B, 0x01, 0x02, 0x8B, 0x9B, 0x01 ; ........
  9E8C  DB 0x01, 0xAF, 0x9B, 0x00, 0x00, 0x83, 0x9E, 0x01 ; ........
  9E94  DB 0x01, 0x60, 0x9C, 0x01, 0x01, 0x69, 0x9C, 0x00 ; .`...i..
  9E9C  DB 0x00, 0x93, 0x9E, 0x01, 0x01, 0xAF, 0x9B, 0x01 ; ........
  9EA4  DB 0x01, 0xB8, 0x9B, 0x00, 0x00, 0x9F, 0x9E, 0x00 ; ........
  9EAC  DB 0x01, 0x81, 0x4B, 0xF0, 0x00, 0x00, 0xFF, 0x01 ; ..K.....
  9EB4  DB 0x01, 0xFF, 0x80, 0xA2, 0x00, 0x07, 0x84, 0x4B ; .......K
  9EBC  DB 0xF0, 0x00, 0x4B, 0xD8, 0xE8, 0x4B, 0xD8, 0x18 ; ..K..K..
  9EC4  DB 0x4B, 0xC0, 0x00, 0x00, 0xFF, 0x01, 0x01, 0xFF ; K.......
  9ECC  DB 0x80, 0xA2, 0x00, 0x00, 0x00, 0xFF, 0x02, 0x03 ; ........
  9ED4  DB 0xFE, 0xB2, 0xA2, 0x04, 0x01, 0xA9, 0xA2, 0x00 ; ........
  9EDC  DB 0xFF, 0x02, 0x01, 0xFC, 0x80, 0xA2, 0x02, 0x02 ; ........
  9EE4  DB 0x80, 0xA2, 0x00, 0x00, 0x00, 0xFF, 0x02, 0x03 ; ........
  9EEC  DB 0xFE, 0xA9, 0xA2, 0x04, 0x01, 0xB2, 0xA2, 0x00 ; ........
  9EF4  DB 0xFF, 0x01, 0x01, 0xFF, 0x80, 0xA2, 0x00, 0x07 ; ........
  9EFC  DB 0x85, 0x4B, 0xF0, 0xE8, 0x4B, 0xF0, 0x18, 0x4B ; .K..K..K
  9F04  DB 0xD8, 0x00, 0x4B, 0xC0, 0xE8, 0x4B, 0xC0, 0x18 ; ..K..K..
  9F0C  DB 0x00, 0xFF, 0x02, 0x01, 0xFC, 0x80, 0xA2, 0x02 ; ........
  9F14  DB 0x02, 0x80, 0xA2, 0x00, 0x00, 0x00, 0xFF, 0x02 ; ........
  9F1C  DB 0x03, 0xFE, 0xA9, 0xA2, 0x04, 0x01, 0xB2, 0xA2 ; ........
  9F24  DB 0x00, 0xFF, 0x01, 0x01, 0xFF, 0x80, 0xA2, 0x00 ; ........
  9F2C  DB 0x00, 0x00, 0xFF, 0x02, 0x03, 0xFE, 0xB2, 0xA2 ; ........
  9F34  DB 0x04, 0x01, 0xA9, 0xA2, 0x00, 0xFF, 0x02, 0x01 ; ........
  9F3C  DB 0xFC, 0x80, 0xA2, 0x02, 0x02, 0x80, 0xA2, 0x00 ; ........
  9F44  DB 0x04, 0x81, 0x49, 0xE0, 0xF8, 0x00, 0xFF, 0x02 ; ..I.....
  9F4C  DB 0x01, 0xFD, 0x80, 0xA2, 0x02, 0x00, 0x80, 0xA2 ; ........
  9F54  DB 0x00, 0xFF, 0x01, 0x03, 0xFE, 0x68, 0x9F, 0x00 ; .....h..
  9F5C  DB 0x00, 0x00, 0xFF, 0x02, 0x01, 0xFD, 0x80, 0xA2 ; ........
  9F64  DB 0x02, 0x00, 0x80, 0xA2, 0x04, 0x00, 0x04, 0xF9 ; ........
  9F6C  DB 0xFA, 0xF9, 0xFA, 0x00, 0x04, 0xFA, 0xD5, 0xD6 ; ........
  9F74  DB 0xF9, 0x00, 0x04, 0xF9, 0xD3, 0xD4, 0xFA, 0x00 ; ........
  9F7C  DB 0x04, 0xFA, 0xF9, 0xFA, 0xF9, 0x00, 0x06, 0x86 ; ........
  9F84  DB 0x4B, 0xF0, 0xD8, 0x4B, 0xF0, 0x00, 0x4B, 0xF0 ; K..K..K.
  9F8C  DB 0x28, 0x4B, 0xC8, 0xD8, 0x4B, 0xC8, 0x00, 0x4B ; (K..K..K
  9F94  DB 0xC8, 0x28, 0x00, 0xFF, 0x03, 0x01, 0xFA, 0x80 ; .(......
  9F9C  DB 0xA2, 0x02, 0xFF, 0x80, 0xA2, 0x03, 0x04, 0x80 ; ........
  9FA4  DB 0xA2, 0x00, 0x00, 0x00, 0xFF, 0x02, 0x04, 0xFC ; ........
  9FAC  DB 0xC5, 0x9F, 0x05, 0x01, 0xC5, 0x9F, 0x00, 0x00 ; ........
  9FB4  DB 0x00, 0x00, 0x00, 0xFF, 0x03, 0x01, 0xFA, 0x80 ; ........
  9FBC  DB 0xA2, 0x02, 0xFF, 0x80, 0xA2, 0x03, 0x04, 0x80 ; ........
  9FC4  DB 0xA2, 0x04, 0x00, 0x04, 0xB2, 0xAA, 0xA7, 0xBB ; ........
  9FCC  DB 0x00, 0x04, 0xA8, 0xB2, 0xBB, 0xA9, 0x00, 0x04 ; ........
  9FD4  DB 0xA7, 0xBB, 0xB2, 0xAA, 0x00, 0x04, 0xBB, 0xA9 ; ........
  9FDC  DB 0xA8, 0xB2, 0x00, 0x0C, 0x88, 0x4B, 0xF0, 0xF0 ; .....K..
  9FE4  DB 0x4B, 0xF0, 0x28, 0x4B, 0xD0, 0xD0, 0x4A, 0xD0 ; K.(K..J.
  9FEC  DB 0x08, 0x4A, 0xB0, 0xE8, 0x4B, 0xB8, 0x28, 0x4B ; .J..K.(K
  9FF4  DB 0x98, 0xD0, 0x4B, 0x98, 0x08, 0x00, 0xFF, 0x02 ; ..K.....
  9FFC  DB 0x01, 0xFD, 0x80, 0xA2, 0x02, 0x04, 0x80, 0xA2 ; ........
  A004  DB 0x00, 0x00, 0x00, 0xFF, 0x02, 0x03, 0xFF, 0xA9 ; ........
  A00C  DB 0xA2, 0x04, 0x03, 0xB2, 0xA2, 0x00, 0xFF, 0x01 ; ........
  A014  DB 0x01, 0x00, 0x90, 0xA2, 0x00, 0xFF, 0x01, 0x02 ; ........
  A01C  DB 0xF9, 0x80, 0xA2, 0x00, 0x00, 0x00, 0xFF, 0x03 ; ........
  A024  DB 0x03, 0xFB, 0xA9, 0xA2, 0x04, 0xFF, 0xB2, 0xA2 ; ........
  A02C  DB 0x05, 0x03, 0xA9, 0xA2, 0x00, 0xFF, 0x02, 0x01 ; ........
  A034  DB 0xFC, 0x90, 0xA2, 0x02, 0x04, 0x80, 0xA2, 0x00 ; ........
  A03C  DB 0x00, 0x00, 0x00, 0x00, 0xFF, 0x02, 0x03, 0xFB ; ........
  A044  DB 0xB2, 0xA2, 0x04, 0xFF, 0xA9, 0xA2, 0x00, 0xFF ; ........
  A04C  DB 0x02, 0x01, 0xF9, 0x80, 0xA2, 0x02, 0x00, 0x80 ; ........
  A054  DB 0xA2, 0x00, 0x04, 0x86, 0x4B, 0xF0, 0xC8, 0x4B ; ....K..K
  A05C  DB 0xF0, 0x30, 0x4C, 0xD8, 0xE0, 0x4C, 0xD8, 0xF0 ; .0L..L..
  A064  DB 0x4C, 0xD8, 0x00, 0x4C, 0xD8, 0x10, 0x00, 0xFF ; L..L....
  A06C  DB 0x02, 0x01, 0xF8, 0x80, 0xA2, 0x02, 0x05, 0x80 ; ........
  A074  DB 0xA2, 0x00, 0x00, 0x00, 0xFF, 0x02, 0x03, 0xFA ; ........
  A07C  DB 0xA9, 0xA2, 0x04, 0x04, 0xB2, 0xA2, 0x00, 0xFF ; ........
  A084  DB 0x01, 0x01, 0xFB, 0x89, 0xA0, 0x03, 0x00, 0x0A ; ........
  A08C  DB 0xA7, 0xB1, 0xB1, 0xB1, 0xB1, 0xB1, 0xB1, 0xB1 ; ........
  A094  DB 0xB1, 0xAA, 0x00, 0x0A, 0xA0, 0xBF, 0xBF, 0xBF ; ........
  A09C  DB 0xBF, 0xBF, 0xBF, 0xBF, 0xBF, 0xBD, 0x00, 0x0A ; ........
  A0A4  DB 0xA8, 0xB0, 0xB0, 0xB0, 0xB0, 0xB0, 0xB0, 0xB0 ; ........
  A0AC  DB 0xB0, 0xA9, 0x0A, 0x00, 0x03, 0xA7, 0xB1, 0xAA ; ........
  A0B4  DB 0x00, 0x03, 0xA0, 0xBF, 0xBD, 0x00, 0x03, 0xA0 ; ........
  A0BC  DB 0xBF, 0xBD, 0x00, 0x03, 0xA0, 0xBF, 0xBD, 0x00 ; ........
  A0C4  DB 0x03, 0xA0, 0xBF, 0xBD, 0x00, 0x03, 0xA0, 0xBF ; ........
  A0CC  DB 0xBD, 0x00, 0x03, 0xA0, 0xBF, 0xBD, 0x00, 0x03 ; ........
  A0D4  DB 0xA0, 0xBF, 0xBD, 0x00, 0x03, 0xA0, 0xBF, 0xBD ; ........
  A0DC  DB 0x00, 0x03, 0xA8, 0xB0, 0xA9, 0x00, 0x07, 0x87 ; ........
  A0E4  DB 0x4B, 0xF0, 0x00, 0x4B, 0xD8, 0xE8, 0x4B, 0xD8 ; K..K..K.
  A0EC  DB 0x00, 0x4B, 0xD8, 0x18, 0x4B, 0xC0, 0x00, 0x4A ; .K..K..J
  A0F4  DB 0xB8, 0xC8, 0x4A, 0xB8, 0x30, 0x00, 0xFF, 0x01 ; ..J.0...
  A0FC  DB 0x01, 0xFF, 0x80, 0xA2, 0x00, 0x00, 0x00, 0xFF ; ........
  A104  DB 0x01, 0x06, 0xFE, 0x30, 0xA1, 0x00, 0xFF, 0x02 ; ...0....
  A10C  DB 0x01, 0xFC, 0x80, 0xA2, 0x02, 0x02, 0x80, 0xA2 ; ........
  A114  DB 0x00, 0x00, 0x00, 0xFF, 0x02, 0x04, 0xFB, 0xB2 ; ........
  A11C  DB 0xA2, 0x05, 0x04, 0xA9, 0xA2, 0x00, 0xFF, 0x03 ; ........
  A124  DB 0x01, 0xFF, 0x80, 0xA2, 0x02, 0xF8, 0x90, 0xA2 ; ........
  A12C  DB 0x03, 0x05, 0x90, 0xA2, 0x05, 0x00, 0x05, 0xA7 ; ........
  A134  DB 0xBB, 0xB1, 0xB2, 0xAA, 0x00, 0x05, 0xBB, 0xBA ; ........
  A13C  DB 0xB0, 0xB5, 0xB2, 0x00, 0x05, 0xBD, 0xA0, 0xBF ; ........
  A144  DB 0xBD, 0xA0, 0x00, 0x05, 0xB2, 0xB5, 0xB0, 0xBA ; ........
  A14C  DB 0xBB, 0x00, 0x05, 0xA8, 0xB2, 0xB1, 0xBB, 0xA9 ; ........
  A154  DB 0x00, 0x05, 0x86, 0x4A, 0xE8, 0xE0, 0x4A, 0xE8 ; ...J..J.
  A15C  DB 0x18, 0x4D, 0xC8, 0x00, 0x4D, 0xB8, 0x00, 0x4D ; .M..M..M
  A164  DB 0xA8, 0x00, 0x4D, 0x98, 0x00, 0x00, 0xFF, 0x02 ; ..M.....
  A16C  DB 0x01, 0xFB, 0x90, 0xA2, 0x02, 0x02, 0x90, 0xA2 ; ........
  A174  DB 0x00, 0x00, 0x00, 0x00, 0x00, 0xFF, 0x02, 0x03 ; ........
  A17C  DB 0xFE, 0xA9, 0xA2, 0x04, 0x01, 0xB2, 0xA2, 0x00 ; ........
  A184  DB 0xFF, 0x01, 0x01, 0xFF, 0xAE, 0xA0, 0x00, 0x0D ; ........
  A18C  DB 0x86, 0x4A, 0xE8, 0xE0, 0x4A, 0xE8, 0x10, 0x4A ; .J..J..J
  A194  DB 0xB8, 0xE0, 0x4A, 0xB8, 0x10, 0x4A, 0x88, 0xE0 ; ..J..J..
  A19C  DB 0x4A, 0x88, 0x10, 0x00, 0xFF, 0x02, 0x01, 0xFB ; J.......
  A1A4  DB 0x90, 0xA2, 0x02, 0x01, 0x90, 0xA2, 0x00, 0x00 ; ........
  A1AC  DB 0x00, 0x00, 0x00, 0xFF, 0x01, 0x03, 0xFE, 0xC5 ; ........
  A1B4  DB 0x9F, 0x00, 0x00, 0x00, 0x00, 0x00, 0xFF, 0x02 ; ........
  A1BC  DB 0x01, 0xFB, 0x90, 0xA2, 0x02, 0x01, 0x90, 0xA2 ; ........
  A1C4  DB 0x00, 0x00, 0x00, 0x00, 0x00, 0xFF, 0x01, 0x03 ; ........
  A1CC  DB 0xFE, 0xC5, 0x9F, 0x00, 0x00, 0x00, 0x00, 0x00 ; ........
  A1D4  DB 0xFF, 0x02, 0x01, 0xFB, 0x90, 0xA2, 0x02, 0x01 ; ........
  A1DC  DB 0x90, 0xA2, 0x00, 0x09, 0x89, 0x4A, 0xE8, 0xF8 ; .....J..
  A1E4  DB 0x4A, 0xD8, 0xF8, 0x4E, 0xC0, 0xF8, 0x4A, 0xC0 ; J..N..J.
  A1EC  DB 0xD0, 0x4A, 0xC0, 0xE0, 0x4A, 0xC0, 0x10, 0x4A ; .J..J..J
  A1F4  DB 0xC0, 0x20, 0x4A, 0xA8, 0xF8, 0x4A, 0x98, 0xF8 ; . J..J..
  A1FC  DB 0x00, 0xFF, 0x01, 0x01, 0xFE, 0x5B, 0xA2, 0x00 ; .....[..
  A204  DB 0x00, 0x00, 0x00, 0x00, 0x00, 0x00, 0x00, 0x00 ; ........
  A20C  DB 0xFF, 0x03, 0x02, 0xF9, 0x3A, 0xA2, 0x03, 0x01 ; ....:...
  A214  DB 0x3A, 0xA2, 0x04, 0xFE, 0x25, 0xA2, 0x00, 0x00 ; :...%...
  A21C  DB 0x00, 0x00, 0x00, 0xFF, 0x01, 0x01, 0xFE, 0x5B ; .......[
  A224  DB 0xA2, 0x04, 0x00, 0x04, 0xBB, 0xB0, 0xB0, 0xB2 ; ........
  A22C  DB 0x01, 0x02, 0xBF, 0xBF, 0x01, 0x02, 0xBF, 0xBF ; ........
  A234  DB 0x00, 0x04, 0xB2, 0xB1, 0xB1, 0xBB, 0x04, 0x00 ; ........
  A23C  DB 0x06, 0xA7, 0xB1, 0xB1, 0xB1, 0xB1, 0xAA, 0x00 ; ........
  A244  DB 0x06, 0xA5, 0xC5, 0xC6, 0xC5, 0xC6, 0xBD, 0x00 ; ........
  A24C  DB 0x06, 0xA6, 0xC3, 0xC4, 0xC3, 0xC4, 0xBD, 0x00 ; ........
  A254  DB 0x06, 0xA8, 0xB0, 0xB0, 0xB0, 0xB0, 0xA9, 0x06 ; ........
  A25C  DB 0x00, 0x04, 0xA7, 0xB1, 0xB1, 0xAA, 0x00, 0x04 ; ........
  A264  DB 0xA5, 0xC5, 0xC6, 0xBD, 0x00, 0x04, 0xA6, 0xC3 ; ........
  A26C  DB 0xC4, 0xBD, 0x00, 0x04, 0xA5, 0xC5, 0xC6, 0xBD ; ........
  A274  DB 0x00, 0x04, 0xA6, 0xC3, 0xC4, 0xBD, 0x00, 0x04 ; ........
  A27C  DB 0xA8, 0xB0, 0xB0, 0xA9, 0x03, 0x00, 0x03, 0xA7 ; ........
  A284  DB 0xB1, 0xAA, 0x00, 0x03, 0xA0, 0xBF, 0xB8, 0x00 ; ........
  A28C  DB 0x03, 0xA8, 0xB1, 0xA9, 0x04, 0x00, 0x04, 0xA7 ; ........
  A294  DB 0xB1, 0xB1, 0xAA, 0x00, 0x04, 0xA5, 0xC5, 0xC6 ; ........
  A29C  DB 0xBD, 0x00, 0x04, 0xA6, 0xC3, 0xC4, 0xBD, 0x00 ; ........
  A2A4  DB 0x04, 0xA8, 0xB0, 0xB0, 0xA9, 0x02, 0x00, 0x02 ; ........
  A2AC  DB 0xB2, 0xAA, 0x00, 0x02, 0xA8, 0xB2, 0x02, 0x00 ; ........
  A2B4  DB 0x02, 0xA7, 0xBB, 0x00, 0x02, 0xBB, 0xA9, 0x00 ; ........
  A2BC  DB 0x02, 0x01, 0x54, 0xF0, 0x00, 0x00, 0x02, 0xA7 ; ..T.....
  A2C4  DB 0xAA, 0x00, 0x02, 0xA8, 0xA9, 0x00, 0x03, 0x01 ; ........
  A2CC  DB 0x55, 0xEC, 0x00, 0x00, 0x02, 0xA7, 0xAA, 0x00 ; U.......
  A2D4  DB 0x02, 0xA0, 0xB8, 0x00, 0x02, 0xA8, 0xA9, 0x00 ; ........
  A2DC  DB 0x02, 0x01, 0x56, 0xF0, 0x04, 0x00, 0x03, 0xA7 ; ..V.....
  A2E4  DB 0xB1, 0xAA, 0x00, 0x03, 0xA8, 0xB0, 0xA9, 0x00 ; ........
  A2EC  DB 0x04, 0x41, 0x52, 0xE8, 0x08, 0x00, 0x04, 0xEC ; .AR.....
  A2F4  DB 0xF0, 0xF0, 0xEF, 0x00, 0x04, 0xF0, 0xE8, 0xEB ; ........
  A2FC  DB 0xF0, 0x00, 0x04, 0xF0, 0xE9, 0xEA, 0xF0, 0x00 ; ........
  A304  DB 0x04, 0xED, 0xF0, 0xF0, 0xEE, 0x05, 0x00, 0xFF ; ........
  A30C  DB 0x04, 0x01, 0x03, 0xEB, 0xA2, 0x02, 0x08, 0xEB ; ........
  A314  DB 0xA2, 0x03, 0x0D, 0xEB, 0xA2, 0x04, 0x12, 0xEB ; ........
  A31C  DB 0xA2, 0x00, 0x00, 0x00, 0x00, 0x00, 0x00, 0x00 ; ........
  A324  DB 0xFF, 0x04, 0x01, 0x05, 0xEB, 0xA2, 0x02, 0x0A ; ........
  A32C  DB 0xEB, 0xA2, 0x03, 0x0F, 0xEB, 0xA2, 0x04, 0x14 ; ........
  A334  DB 0xEB, 0xA2, 0x00, 0x02, 0x01, 0x46, 0xF0, 0x08 ; .....F..
  A33C  DB 0x00, 0x03, 0x9E, 0x13, 0x14, 0x00, 0x03, 0x9F ; ........
  A344  DB 0x11, 0x12, 0x00, 0x02, 0x01, 0x46, 0xF0, 0x08 ; .....F..
  A34C  DB 0x00, 0x03, 0x87, 0x13, 0x14, 0x00, 0x03, 0x88 ; ........
  A354  DB 0x11, 0x12, 0x00, 0x02, 0x01, 0x46, 0xF0, 0x08 ; .....F..
  A35C  DB 0x00, 0x03, 0x70, 0x13, 0x14, 0x00, 0x03, 0x71 ; ..p....q
  A364  DB 0x11, 0x12, 0x00, 0x02, 0x61, 0x47, 0xF0, 0x08 ; ....aG..
  A36C  DB 0x00, 0x03, 0x9E, 0x15, 0x16, 0x00, 0x03, 0x9F ; ........
  A374  DB 0x11, 0x12, 0x00, 0x02, 0x61, 0x47, 0xF0, 0x08 ; ....aG..
  A37C  DB 0x00, 0x03, 0x87, 0x15, 0x16, 0x00, 0x03, 0x88 ; ........
  A384  DB 0x11, 0x12, 0x00, 0x02, 0x61, 0x47, 0xF0, 0x08 ; ....aG..
  A38C  DB 0x00, 0x03, 0x70, 0x15, 0x16, 0x00, 0x03, 0x71 ; ..p....q
  A394  DB 0x11, 0x12, 0x00, 0x01, 0x61, 0x47, 0xF0, 0x08 ; ....aG..
  A39C  DB 0x00, 0x00, 0x02, 0x00, 0x02, 0x1E, 0x1F, 0x00 ; ........
  A3A4  DB 0x02, 0x1C, 0x1D, 0x06, 0x00, 0x02, 0x6D, 0x6E ; ......mn
  A3AC  DB 0x00, 0x03, 0x6B, 0x6C, 0x66, 0x00, 0x03, 0x5B ; ..klf..[
  A3B4  DB 0x27, 0x6A, 0x01, 0x02, 0x69, 0x6C, 0x01, 0x02 ; 'j..il..
  A3BC  DB 0x6B, 0x6A, 0x01, 0x02, 0x5B, 0x61, 0x05, 0x00 ; kj..[a..
  A3C4  DB 0x05, 0x63, 0x64, 0x65, 0x64, 0x5E, 0x00, 0x06 ; .cded^..
  A3CC  DB 0x6B, 0x24, 0x26, 0x27, 0x26, 0x5E, 0x00, 0x07 ; k$&'&^..
  A3D4  DB 0x5F, 0x60, 0x61, 0x60, 0x27, 0x27, 0x5E, 0x04 ; _`a`''^.
  A3DC  DB 0x03, 0x69, 0x26, 0x5C, 0x04, 0x02, 0x67, 0x61 ; .i&\..ga
  A3E4  DB 0x05, 0x01, 0x03, 0x64, 0x65, 0x66, 0x00, 0x05 ; ...def..
  A3EC  DB 0x6D, 0x27, 0x24, 0x27, 0x5E, 0x00, 0x06, 0x6B ; m'$'^..k
  A3F4  DB 0x25, 0x25, 0x24, 0x27, 0x6E, 0x00, 0x06, 0x5B ; %%$'n..[
  A3FC  DB 0x27, 0x24, 0x25, 0x27, 0x68, 0x01, 0x04, 0x5F ; '$%'h.._
  A404  DB 0x60, 0x61, 0x62, 0x04, 0x01, 0x03, 0x5D, 0x65 ; `ab...]e
  A40C  DB 0x66, 0x00, 0x05, 0x6D, 0x24, 0x25, 0x27, 0x6E ; f..m$%'n
  A414  DB 0x00, 0x04, 0x6B, 0x27, 0x61, 0x62, 0x00, 0x02 ; ..k'ab..
  A41C  DB 0x5F, 0x62, 0x03, 0x00, 0x02, 0x5D, 0x6E, 0x00 ; _b...]n.
  A424  DB 0x02, 0x69, 0x6C, 0x00, 0x02, 0x67, 0x5C, 0x05 ; .il..g\.
  A42C  DB 0x00, 0x05, 0x98, 0x8D, 0x90, 0x8D, 0x8E, 0x00 ; ........
  A434  DB 0x06, 0x9A, 0x17, 0x18, 0x17, 0x17, 0x97, 0x01 ; ........
  A43C  DB 0x05, 0x9C, 0x19, 0x18, 0x17, 0x99, 0x01, 0x04 ; ........
  A444  DB 0x9A, 0x17, 0x17, 0x8B, 0x02, 0x02, 0x8C, 0x8B ; ........
  A44C  DB 0x28, 0x28, 0x28, 0x29, 0x28, 0x28, 0x28, 0x29 ; ((()((()
  A454  DB 0x28, 0x28, 0x28, 0x28, 0x28, 0x29, 0x28, 0x28 ; ((((()((
  A45C  DB 0x28, 0x28, 0x29, 0x29, 0x28, 0x29, 0x28, 0x29 ; (())()()
  A464  DB 0x28, 0x29, 0x28, 0x29, 0x28, 0x28, 0x29, 0x28 ; ()()(()(
  A46C  DB 0x29, 0x28, 0x28, 0x28, 0x29, 0x28, 0x28, 0x28 ; )((()(((
  A474  DB 0x28, 0x28, 0x28, 0x28, 0x29, 0x28, 0x29, 0x28 ; (((()()(
  A47C  DB 0x28, 0x29, 0x28, 0x28, 0x29, 0x28, 0x28, 0x29 ; ()(()(()
  A484  DB 0x28, 0x28, 0x28, 0x28, 0x28, 0x28, 0x29, 0x28 ; (((((()(
  A48C  DB 0x29, 0x29, 0x28, 0x29, 0x28, 0x29, 0x28, 0x28 ; ))()()((
  A494  DB 0x28, 0x29, 0x28, 0x28, 0x29, 0x29, 0x29, 0x28 ; ()(()))(
  A49C  DB 0x28, 0x28, 0x28, 0x28, 0x28, 0x28, 0x29, 0x28 ; (((((()(
  A4A4  DB 0x28, 0x29, 0x28, 0x28, 0x28, 0x28, 0x28, 0x28 ; ()((((((
  A4AC  DB 0x17, 0x17, 0x18, 0x18, 0x18, 0x18, 0x18, 0x17 ; ........
  A4B4  DB 0x18, 0x17, 0x17, 0x18, 0x17, 0x17, 0x18, 0x17 ; ........
  A4BC  DB 0x17, 0x17, 0x17, 0x17, 0x18, 0x17, 0x18, 0x18 ; ........
  A4C4  DB 0x17, 0x19, 0x18, 0x17, 0x18, 0x18, 0x18, 0x18 ; ........
  A4CC  DB 0x18, 0x17, 0x17, 0x18, 0x18, 0x19, 0x18, 0x17 ; ........
  A4D4  DB 0x18, 0x17, 0x17, 0x19, 0x18, 0x18, 0x19, 0x18 ; ........
  A4DC  DB 0x17, 0x18, 0x17, 0x17, 0x18, 0x19, 0x18, 0x18 ; ........
  A4E4  DB 0x18, 0x18, 0x19, 0x18, 0x17, 0x18, 0x18, 0x18 ; ........
  A4EC  DB 0x17, 0x17, 0x17, 0x17, 0x18, 0x18, 0x17, 0x17 ; ........
  A4F4  DB 0x18, 0x18, 0x17, 0x18, 0x17, 0x18, 0x17, 0x18 ; ........
  A4FC  DB 0x17, 0x17, 0x18, 0x18, 0x18, 0x18, 0x17, 0x17 ; ........
  A504  DB 0x19, 0x17, 0x17, 0x18, 0x18, 0x18, 0x17, 0x18 ; ........
  A50C  DB 0x17, 0x17, 0x17, 0x17, 0x17, 0x17, 0x18, 0x17 ; ........
  A514  DB 0x19, 0x17, 0x18, 0x18, 0x18, 0x17, 0x18, 0x17 ; ........
  A51C  DB 0x18, 0x17, 0x17, 0x17, 0x19, 0x17, 0x17, 0x19 ; ........
  A524  DB 0x17, 0x17, 0x17, 0x18, 0x18, 0x18, 0x17, 0x17 ; ........
  A52C  DB 0x17, 0x17, 0x17, 0x18, 0x18, 0x19, 0x18, 0x17 ; ........
  A534  DB 0x18, 0x17, 0x17, 0x18, 0x17, 0x17, 0x17, 0x18 ; ........
  A53C  DB 0x19, 0x17, 0x17, 0x19, 0x18, 0x17, 0x17, 0x17 ; ........
  A544  DB 0x18, 0x18, 0x17, 0x17, 0x17, 0x17, 0x18, 0x17 ; ........
  A54C  DB 0x18, 0x19, 0x17, 0x18, 0x17, 0x17, 0x18, 0x18 ; ........
  A554  DB 0x17, 0x17, 0x18, 0x18, 0x17, 0x17, 0x17, 0x17 ; ........
  A55C  DB 0x17, 0x18, 0x18, 0x17, 0x17, 0x17, 0x17, 0x17 ; ........
  A564  DB 0x17, 0x17, 0x17, 0x17, 0x17, 0x18, 0x18, 0x19 ; ........
  A56C  DB 0x27, 0x27, 0x27, 0x27, 0x26, 0x26, 0x27, 0x26 ; ''''&&'&
  A574  DB 0x26, 0x27, 0x26, 0x26, 0x24, 0x27, 0x26, 0x27 ; &'&&$'&'
  A57C  DB 0x27, 0x27, 0x26, 0x27, 0x27, 0x27, 0x27, 0x25 ; ''&''''%
  A584  DB 0x26, 0x27, 0x26, 0x24, 0x26, 0x26, 0x26, 0x26 ; &'&$&&&&
  A58C  DB 0x24, 0x26, 0x25, 0x27, 0x27, 0x26, 0x26, 0x24 ; $&%''&&$
  A594  DB 0x27, 0x25, 0x24, 0x26, 0x26, 0x26, 0x25, 0x25 ; '%$&&&%%
  A59C  DB 0x27, 0x26, 0x24, 0x26, 0x26, 0x25, 0x25, 0x26 ; '&$&&%%&
  A5A4  DB 0x26, 0x24, 0x24, 0x25, 0x25, 0x25, 0x26, 0x25 ; &$$%%%&%
  A5AC  DB 0x24, 0x24, 0x24, 0x24, 0x24, 0x26, 0x24, 0x26 ; $$$$$&$&
  A5B4  DB 0x27, 0x26, 0x25, 0x24, 0x24, 0x26, 0x25, 0x26 ; '&%$$&%&
  A5BC  DB 0x24, 0x24, 0x24, 0x25, 0x24, 0x26, 0x24, 0x26 ; $$$%$&$&
  A5C4  DB 0x24, 0x24, 0x24, 0x26, 0x25, 0x24, 0x26, 0x26 ; $$$&%$&&
  A5CC  DB 0x26, 0x26, 0x25, 0x24, 0x25, 0x25, 0x26, 0x25 ; &&%$%%&%
  A5D4  DB 0x24, 0x24, 0x24, 0x24, 0x27, 0x25, 0x25, 0x24 ; $$$$'%%$
  A5DC  DB 0x24, 0x24, 0x26, 0x25, 0x26, 0x26, 0x25, 0x26 ; $$&%&&%&
  A5E4  DB 0x24, 0x26, 0x24, 0x24, 0x26, 0x27, 0x27, 0x26 ; $&$$&''&
  A5EC  DB 0x24, 0x24, 0x26, 0x27, 0x25, 0x26, 0x25, 0x24 ; $$&'%&%$
  A5F4  DB 0x24, 0x25, 0x27, 0x24, 0x27, 0x27, 0x26, 0x25 ; $%'$''&%
  A5FC  DB 0x25, 0x27, 0x26, 0x26, 0x27, 0x27, 0x27, 0x24 ; %'&&'''$
  A604  DB 0x25, 0x26, 0x27, 0x27, 0x26, 0x27, 0x27, 0x24 ; %&''&''$
  A60C  DB 0x25, 0x27, 0x27, 0x27, 0x27, 0x26, 0x25, 0x25 ; %''''&%%
  A614  DB 0x24, 0x27, 0x27, 0x27, 0x27, 0x27, 0x27, 0x27 ; $'''''''
  A61C  DB 0x27, 0x27, 0x26, 0x26, 0x27, 0x27, 0x27, 0x27 ; ''&&''''
  A624  DB 0x27, 0x27, 0x27, 0x27, 0x27, 0x27, 0x26, 0x26 ; ''''''&&
  A62C  DB 0x17, 0x1D, 0x18, 0x18, 0x1D, 0x1E, 0x1D, 0x19 ; ........
  A634  DB 0x17, 0x17, 0x1C, 0x1A, 0x1B, 0x1C, 0x18, 0x18 ; ........
  A63C  DB 0x19, 0x1D, 0x1E, 0x1D, 0x17, 0x17, 0x1D, 0x18 ; ........
  A644  DB 0x7C, 0x6F, 0x70, 0x72, 0x1D, 0x72, 0x7A, 0x7B ; |opr.rz{
  A64C  DB 0x7C, 0x67, 0x6F, 0x71, 0x1D, 0x7A, 0x7C, 0x67 ; |goq.z|g
  A654  DB 0x6F, 0x70, 0x71, 0x72, 0x1D, 0x72, 0x7B, 0x7C ; opqr.r{|
  A65C  DB 0x00, 0x00, 0x86, 0x55, 0x14, 0x00, 0x82, 0x02 ; ...U....
  A664  DB 0x00, 0x0A, 0x55, 0xAF, 0xB9, 0x01, 0x17, 0x55 ; ..U....U
  A66C  DB 0xD1, 0xB9, 0x1E, 0x00, 0x88, 0xEC, 0xA6, 0x32 ; .......2
  A674  DB 0x00, 0x85, 0x01, 0x00, 0x08, 0x09, 0xA3, 0x64 ; .......d
  A67C  DB 0x00, 0x8C, 0x70, 0x64, 0x00, 0x80, 0x07, 0x01 ; ..pd....
  A684  DB 0x1E, 0x14, 0x3C, 0xC8, 0x00, 0x81, 0x02, 0x43 ; ..<....C
  A68C  DB 0x14, 0xC8, 0x20, 0x14, 0x78, 0x2C, 0x01, 0x81 ; .. .x,..
  A694  DB 0x02, 0x24, 0x32, 0x64, 0x2C, 0x41, 0x64, 0x90 ; .$2d,Ad.
  A69C  DB 0x01, 0x81, 0x02, 0x22, 0x14, 0xFA, 0x41, 0x0A ; ..."..A.
  A6A4  DB 0xFA, 0xF4, 0x01, 0x81, 0x03, 0x1E, 0x32, 0x3C ; ......2<
  A6AC  DB 0x20, 0x32, 0x3C, 0x1D, 0x14, 0xC8, 0x20, 0x03 ;  2<... .
  A6B4  DB 0x8C, 0x60, 0xE8, 0x03, 0x81, 0x02, 0x3A, 0x64 ; .`....:d
  A6BC  DB 0x3C, 0x2C, 0x1E, 0x1E, 0xDC, 0x05, 0x81, 0x02 ; <,......
  A6C4  DB 0x40, 0x32, 0xC8, 0x08, 0x0A, 0x78, 0xDC, 0x05 ; @2...x..
  A6CC  DB 0x8C, 0x60, 0x98, 0x08, 0x81, 0x02, 0x09, 0x14 ; .`......
  A6D4  DB 0xC8, 0x20, 0x32, 0x1E, 0x28, 0x0A, 0x81, 0x01 ; . 2.(...
  A6DC  DB 0x42, 0x08, 0xFA, 0x54, 0x0B, 0x80, 0x03, 0x86 ; B..T....
  A6E4  DB 0x0B, 0x8C, 0x00, 0xB8, 0x0B, 0x89, 0xA5, 0xB7 ; ........
  A6EC  DB 0x00, 0x02, 0x04, 0x06, 0x01, 0x03, 0x05, 0x07 ; ........
  A6F4  DB 0x00, 0x00, 0x86, 0x33, 0x32, 0x00, 0x8A, 0x6C ; ...32..l
  A6FC  DB 0x64, 0x00, 0x82, 0x01, 0x00, 0x08, 0xAB, 0x60 ; d......`
  A704  DB 0x9E, 0x8C, 0x00, 0x84, 0x01, 0x00, 0x00, 0xAB ; ........
  A70C  DB 0x34, 0x9D, 0xBE, 0x00, 0x85, 0x02, 0x00, 0x0D ; 4.......
  A714  DB 0x8F, 0xAA, 0x09, 0x15, 0x14, 0x7F, 0xAA, 0xC8 ; ........
  A71C  DB 0x00, 0x82, 0x01, 0x01, 0x1F, 0x31, 0x1C, 0x9D ; .....1..
  A724  DB 0x18, 0x01, 0x82, 0x01, 0x02, 0x1F, 0x13, 0x34 ; .......4
  A72C  DB 0x9D, 0x54, 0x01, 0x84, 0x01, 0x01, 0x01, 0x31 ; .T.....1
  A734  DB 0xDC, 0x9C, 0x68, 0x01, 0x84, 0x01, 0x01, 0x00 ; ..h.....
  A73C  DB 0x31, 0x4C, 0x9D, 0x90, 0x01, 0x85, 0x02, 0x00 ; 1L......
  A744  DB 0x18, 0x7F, 0xAA, 0x09, 0x14, 0x78, 0x7F, 0xAA ; .....x..
  A74C  DB 0x8A, 0x02, 0x89, 0xF4, 0xA6, 0x00, 0x00, 0x86 ; ........
  A754  DB 0x33, 0x00, 0x00, 0x8A, 0x6C, 0x1E, 0x00, 0x88 ; 3...l...
  A75C  DB 0x68, 0xAA, 0x32, 0x00, 0x85, 0x02, 0x00, 0x0C ; h.2.....
  A764  DB 0x56, 0xA3, 0x01, 0x1C, 0x56, 0xA3, 0x50, 0x00 ; V...V.P.
  A76C  DB 0x82, 0x02, 0x00, 0x02, 0x31, 0x1C, 0x9E, 0x01 ; ....1...
  A774  DB 0x08, 0x13, 0x34, 0x9E, 0x6E, 0x00, 0x85, 0x07 ; ..4.n...
  A77C  DB 0x00, 0x18, 0x2B, 0xA4, 0x09, 0x1A, 0x02, 0x46 ; ..+....F
  A784  DB 0xA3, 0x0A, 0x13, 0x14, 0xEB, 0xA2, 0x0B, 0x1B ; ........
  A78C  DB 0x14, 0xEB, 0xA2, 0x0D, 0x16, 0x78, 0xAE, 0xAA ; .....x..
  A794  DB 0x0E, 0x1C, 0x8C, 0xBC, 0xAA, 0x0F, 0x19, 0xA0 ; ........
  A79C  DB 0xA0, 0xAA, 0x2C, 0x01, 0x8B, 0x30, 0x06, 0x00 ; ..,..0..
  A7A4  DB 0x03, 0x14, 0xAB, 0x9E, 0x54, 0x01, 0x85, 0x06 ; ....T...
  A7AC  DB 0x00, 0x12, 0xBC, 0xAA, 0x09, 0x16, 0x0A, 0x7F ; ........
  A7B4  DB 0xAA, 0x0A, 0x0E, 0x3C, 0x56, 0xA3, 0x0B, 0x11 ; ...<V...
  A7BC  DB 0x46, 0x56, 0xA3, 0x0C, 0x14, 0x50, 0x56, 0xA3 ; FV...PV.
  A7C4  DB 0x0D, 0x0A, 0x55, 0x7F, 0xAA, 0x7C, 0x01, 0x82 ; ..U..|..
  A7CC  DB 0x01, 0x02, 0x1F, 0x31, 0x72, 0xAA, 0x08, 0x02 ; ...1r...
  A7D4  DB 0x85, 0x04, 0x00, 0x14, 0xEB, 0xA2, 0x09, 0x11 ; ........
  A7DC  DB 0x06, 0x7F, 0xAA, 0x0A, 0x10, 0x0A, 0x7F, 0xAA ; ........
  A7E4  DB 0x0B, 0x12, 0x1E, 0xBB, 0xA2, 0xC6, 0x02, 0x84 ; ........
  A7EC  DB 0x01, 0x02, 0xFF, 0x31, 0x84, 0x9D, 0xCB, 0x02 ; ...1....
  A7F4  DB 0x82, 0x01, 0x03, 0x1F, 0x13, 0x90, 0x9D, 0xE9 ; ........
  A7FC  DB 0x02, 0x82, 0x02, 0x00, 0x04, 0x31, 0x54, 0x9E ; .....1T.
  A804  DB 0x01, 0x08, 0x13, 0x60, 0x9E, 0xF7, 0x02, 0x83 ; ...`....
  A80C  DB 0x01, 0x03, 0x01, 0xF7, 0x02, 0x87, 0x01, 0x02 ; ........
  A814  DB 0x00, 0x03, 0x84, 0x02, 0x00, 0x00, 0x31, 0xB4 ; ......1.
  A81C  DB 0x9C, 0x01, 0x00, 0x13, 0xC8, 0x9C, 0x0C, 0x03 ; ........
  A824  DB 0x85, 0x02, 0x00, 0x18, 0xEB, 0xA2, 0x09, 0x1B ; ........
  A82C  DB 0x19, 0xEB, 0xA2, 0xE8, 0x03, 0x8B, 0x60, 0x0B ; ......`.
  A834  DB 0x01, 0x00, 0x15, 0xB8, 0x9E, 0xFC, 0x03, 0x8C ; ........
  A83C  DB 0x10, 0xFC, 0x03, 0x84, 0x02, 0x00, 0x01, 0x31 ; .......1
  A844  DB 0xE8, 0x9D, 0x01, 0x01, 0x13, 0xFC, 0x9D, 0x06 ; ........
  A84C  DB 0x04, 0x81, 0x01, 0x0A, 0x14, 0x64, 0x1A, 0x04 ; .....d..
  A854  DB 0x82, 0x01, 0x02, 0x1F, 0x31, 0x1C, 0x9D, 0x1F ; ....1...
  A85C  DB 0x04, 0x85, 0x04, 0x00, 0x17, 0xEB, 0xA2, 0x09 ; ........
  A864  DB 0x0B, 0x28, 0xC9, 0xA2, 0x0A, 0x0F, 0x64, 0xD1 ; .(....d.
  A86C  DB 0xAA, 0x0B, 0x14, 0x64, 0xA0, 0xAA, 0x4C, 0x04 ; ...d..L.
  A874  DB 0x84, 0x03, 0x00, 0x00, 0x31, 0x4C, 0x9D, 0x01 ; ....1L..
  A87C  DB 0xFF, 0x13, 0x6C, 0x9D, 0x02, 0x00, 0x31, 0x54 ; ..l...1T
  A884  DB 0x9E, 0xE2, 0x04, 0x82, 0x02, 0x02, 0x16, 0xBA ; ........
  A88C  DB 0x9C, 0x9D, 0x03, 0x17, 0xAB, 0x60, 0x9E, 0xE2 ; .....`..
  A894  DB 0x04, 0x86, 0x22, 0xEC, 0x04, 0x85, 0x06, 0x00 ; ..".....
  A89C  DB 0x1C, 0xC9, 0xA2, 0x09, 0x15, 0x20, 0x46, 0xA3 ; ..... F.
  A8A4  DB 0x0A, 0x16, 0x24, 0x9E, 0xA3, 0x0B, 0x17, 0x27 ; ..$....'
  A8AC  DB 0x8F, 0xAA, 0x0C, 0x12, 0x2C, 0x8F, 0xAA, 0x0D ; ....,...
  A8B4  DB 0x15, 0x46, 0x76, 0xA3, 0x78, 0x05, 0x82, 0x02 ; .Fv.x...
  A8BC  DB 0x00, 0x01, 0x31, 0x90, 0x9E, 0x01, 0x08, 0x92 ; ..1.....
  A8C4  DB 0x9C, 0x9E, 0x78, 0x05, 0x86, 0x33, 0xAA, 0x05 ; ..x..3..
  A8CC  DB 0x8C, 0x00, 0xDC, 0x05, 0x85, 0x08, 0x00, 0x12 ; ........
  A8D4  DB 0xEB, 0xA2, 0x09, 0x14, 0x06, 0x7F, 0xAA, 0x0A ; ........
  A8DC  DB 0x10, 0x0A, 0x7F, 0xAA, 0x0B, 0x15, 0x32, 0x2B ; ......2+
  A8E4  DB 0xA4, 0x0C, 0x14, 0x3C, 0xBB, 0xA2, 0x0D, 0x14 ; ...<....
  A8EC  DB 0x96, 0xDB, 0xA2, 0x0E, 0x10, 0xD2, 0x8F, 0xAA ; ........
  A8F4  DB 0x0F, 0x13, 0xD7, 0x8F, 0xAA, 0x72, 0x06, 0x82 ; .....r..
  A8FC  DB 0x01, 0x00, 0x1F, 0xBA, 0x9C, 0x9D, 0x81, 0x06 ; ........
  A904  DB 0x84, 0x01, 0x00, 0x00, 0xBA, 0x1C, 0x9D, 0x86 ; ........
  A90C  DB 0x06, 0x82, 0x01, 0x01, 0x1F, 0xA1, 0x84, 0x9D ; ........
  A914  DB 0xA4, 0x06, 0x84, 0x02, 0x00, 0x00, 0xBA, 0xB4 ; ........
  A91C  DB 0x9C, 0x01, 0x01, 0xA1, 0xE8, 0x9D, 0xB8, 0x06 ; ........
  A924  DB 0x85, 0x08, 0x00, 0x1C, 0x36, 0xA3, 0x09, 0x18 ; ....6...
  A92C  DB 0x1A, 0x9E, 0xA3, 0x0A, 0x1A, 0x32, 0x9C, 0xAA ; .....2..
  A934  DB 0x0B, 0x1C, 0x3C, 0x8F, 0xAA, 0x0C, 0x0D, 0x82 ; ..<.....
  A93C  DB 0xEB, 0xA2, 0x0D, 0x17, 0x96, 0xEB, 0xA2, 0x0E ; ........
  A944  DB 0x0C, 0xA3, 0x7F, 0xAA, 0x0F, 0x0B, 0xAA, 0x7F ; ........
  A94C  DB 0xAA, 0xC2, 0x06, 0x84, 0x01, 0x00, 0x01, 0xBA ; ........
  A954  DB 0x1C, 0x9E, 0xD0, 0x07, 0x82, 0x01, 0x00, 0x1F ; ........
  A95C  DB 0x31, 0x72, 0xAA, 0x0C, 0x08, 0x85, 0x04, 0x00 ; 1r......
  A964  DB 0x0C, 0xC9, 0xA2, 0x09, 0x0E, 0x1E, 0xEB, 0xA2 ; ........
  A96C  DB 0x0E, 0x10, 0x78, 0xA0, 0xAA, 0x0F, 0x11, 0xC8 ; ..x.....
  A974  DB 0x56, 0xA3, 0x48, 0x08, 0x8B, 0x70, 0x0B, 0x02 ; V.H..p..
  A97C  DB 0x00, 0x14, 0xFA, 0x9E, 0xFC, 0x08, 0x84, 0x01 ; ........
  A984  DB 0x00, 0x01, 0x31, 0x54, 0x9E, 0x4C, 0x09, 0x85 ; ..1T.L..
  A98C  DB 0x05, 0x00, 0x0C, 0x2B, 0xA4, 0x09, 0x0C, 0x14 ; ...+....
  A994  DB 0xC9, 0xA2, 0x0A, 0x1C, 0x14, 0xC9, 0xA2, 0x0E ; ........
  A99C  DB 0x13, 0x7E, 0xDB, 0xA2, 0x0F, 0x0B, 0x8C, 0xEB ; .~......
  A9A4  DB 0xA2, 0xC4, 0x09, 0x8B, 0x30, 0x0A, 0x00, 0x00 ; ....0...
  A9AC  DB 0x14, 0xAB, 0x9E, 0xCE, 0x09, 0x82, 0x02, 0x00 ; ........
  A9B4  DB 0x1F, 0x31, 0x84, 0x9D, 0x03, 0x25, 0x13, 0x90 ; .1...%..
  A9BC  DB 0x9D, 0xF6, 0x09, 0x84, 0x02, 0x00, 0x00, 0x31 ; .......1
  A9C4  DB 0xDC, 0x9C, 0x03, 0x00, 0x13, 0xFC, 0x9C, 0x3C ; .......<
  A9CC  DB 0x0A, 0x85, 0x05, 0x00, 0x0E, 0xAE, 0xAA, 0x09 ; ........
  A9D4  DB 0x0B, 0x28, 0xD1, 0xAA, 0x0A, 0x0C, 0x50, 0xC9 ; .(....P.
  A9DC  DB 0xA2, 0x0B, 0x1C, 0x50, 0xC9, 0xA2, 0x0C, 0x10 ; ...P....
  A9E4  DB 0x6F, 0x9E, 0xA3, 0x87, 0x0A, 0x84, 0x01, 0x00 ; o.......
  A9EC  DB 0x00, 0x31, 0x9C, 0x9D, 0x8C, 0x0A, 0x84, 0x01 ; .1......
  A9F4  DB 0x03, 0x00, 0x13, 0x80, 0x9E, 0x8F, 0x0A, 0x82 ; ........
  A9FC  DB 0x02, 0x01, 0x14, 0x92, 0xB4, 0x9D, 0x02, 0x15 ; ........
  AA04  DB 0xA1, 0x6C, 0x9E, 0x91, 0x0A, 0x86, 0x22, 0xAA ; .l....".
  AA0C  DB 0x0A, 0x8A, 0xE6, 0x04, 0x0B, 0x85, 0x03, 0x00 ; ........
  AA14  DB 0x14, 0xA0, 0xAA, 0x09, 0x14, 0x1E, 0xBC, 0xAA ; ........
  AA1C  DB 0x0A, 0x14, 0x3C, 0xA0, 0xAA, 0x54, 0x0B, 0x85 ; ..<..T..
  AA24  DB 0x08, 0x00, 0x14, 0xDB, 0xA2, 0x09, 0x12, 0x0A ; ........
  AA2C  DB 0x9E, 0xA3, 0x0A, 0x0E, 0x0D, 0x9E, 0xA3, 0x0B ; ........
  AA34  DB 0x17, 0x14, 0x9E, 0xA3, 0x0C, 0x14, 0x23, 0x9E ; ......#.
  AA3C  DB 0xA3, 0x0D, 0x0D, 0x1E, 0xDB, 0xA2, 0x0E, 0x1A ; ........
  AA44  DB 0x1E, 0xDB, 0xA2, 0x0F, 0x13, 0x1C, 0xC9, 0xA2 ; ........
  AA4C  DB 0x86, 0x0B, 0x8B, 0x80, 0x0B, 0x24, 0x01, 0x14 ; .....$..
  AA54  DB 0x81, 0x9F, 0x89, 0x0B, 0x82, 0x01, 0x00, 0x1F ; ........
  AA5C  DB 0xAB, 0xB4, 0x9D, 0x8B, 0x0B, 0x86, 0x33, 0xB8 ; ......3.
  AA64  DB 0x0B, 0x89, 0xEF, 0xAA, 0x02, 0x01, 0x07, 0x00 ; ........
  AA6C  DB 0x03, 0x06, 0xEF, 0xAA, 0x04, 0x01, 0x02, 0x05 ; ........
  AA74  DB 0x03, 0x06, 0x04, 0x96, 0x9C, 0x01, 0xFF, 0x00 ; ........
  AA7C  DB 0x00, 0xDF, 0x9C, 0x03, 0x00, 0x03, 0x3A, 0x3E ; ......:>
  AA84  DB 0x3D, 0x00, 0x03, 0x3E, 0x3E, 0x3E, 0x00, 0x03 ; =..>>>..
  AA8C  DB 0x3B, 0x3E, 0x3C, 0x02, 0x00, 0x02, 0x2A, 0x2D ; ;><...*-
  AA94  DB 0x00, 0x02, 0x2B, 0x2C, 0x01, 0x00, 0x01, 0x2F ; ..+,.../
  AA9C  DB 0x01, 0x00, 0x01, 0x1A, 0x00, 0x02, 0x01, 0x57 ; .......W
  AAA4  DB 0xF0, 0x00, 0x00, 0x02, 0xEC, 0xEF, 0x00, 0x02 ; ........
  AAAC  DB 0xED, 0xEE, 0x00, 0x02, 0x01, 0x57, 0xF0, 0x00 ; .....W..
  AAB4  DB 0x00, 0x02, 0xFB, 0xFC, 0x00, 0x02, 0xFC, 0xFB ; ........
  AABC  DB 0x00, 0x03, 0x01, 0x58, 0xEC, 0x04, 0x00, 0x03 ; ...X....
  AAC4  DB 0xFD, 0xF1, 0xFD, 0x00, 0x03, 0xF1, 0xF5, 0xF1 ; ........
  AACC  DB 0x00, 0x03, 0xFD, 0xF1, 0xFD, 0x00, 0x04, 0x01 ; ........
  AAD4  DB 0x59, 0xE8, 0x08, 0x00, 0x04, 0xFE, 0xFF, 0xFF ; Y.......
  AADC  DB 0xFE, 0x00, 0x04, 0xFF, 0xF5, 0xF5, 0xFF, 0x00 ; ........
  AAE4  DB 0x04, 0xFF, 0xF5, 0xF5, 0xFF, 0x00, 0x04, 0xFE ; ........
  AAEC  DB 0xFF, 0xFF, 0xFE, 0x64, 0x00, 0x86, 0x33, 0x6E ; ...d..3n
  AAF4  DB 0x00, 0x8C, 0x20, 0x7E, 0x00, 0x88, 0x33, 0xAD ; .. ~..3.
  AAFC  DB 0x82, 0x00, 0x82, 0x01, 0x00, 0x1F, 0xBA, 0x84 ; ........
  AB04  DB 0x9D, 0x87, 0x00, 0x86, 0x22, 0x8C, 0x00, 0x8A ; ...."...
  AB0C  DB 0xE6, 0x94, 0x00, 0x84, 0x01, 0x00, 0x00, 0xBA ; ........
  AB14  DB 0x9C, 0x9D, 0x96, 0x00, 0x85, 0x06, 0x00, 0x1C ; ........
  AB1C  DB 0xC9, 0xA2, 0x09, 0x1C, 0x14, 0xC9, 0xA2, 0x0A ; ........
  AB24  DB 0x0D, 0x78, 0xEB, 0xA2, 0x0C, 0x0D, 0x7E, 0xDB ; .x....~.
  AB2C  DB 0xA2, 0x0D, 0x1B, 0x7E, 0xDB, 0xA2, 0x0E, 0x19 ; ...~....
  AB34  DB 0xC8, 0x9E, 0xA3, 0x90, 0x01, 0x8C, 0x00, 0xB8 ; ........
  AB3C  DB 0x01, 0x8B, 0x60, 0x0C, 0x02, 0x01, 0x14, 0xFA ; ..`.....
  AB44  DB 0x9E, 0x26, 0x02, 0x85, 0x06, 0x00, 0x14, 0xBB ; .&......
  AB4C  DB 0xA2, 0x09, 0x10, 0x0A, 0xBB, 0xA2, 0x0A, 0x1B ; ........
  AB54  DB 0x0B, 0xEB, 0xA2, 0x0B, 0x0C, 0x14, 0xBB, 0xA2 ; ........
  AB5C  DB 0x0C, 0x1C, 0x50, 0x66, 0xA3, 0x0D, 0x1C, 0x58 ; ..Pf...X
  AB64  DB 0x96, 0xA3, 0x62, 0x02, 0x82, 0x01, 0x00, 0x1F ; ..b.....
  AB6C  DB 0xA1, 0xC8, 0x9D, 0x62, 0x02, 0x86, 0x11, 0x71 ; ...b...q
  AB74  DB 0x02, 0x82, 0x01, 0x00, 0x08, 0xA1, 0x6C, 0x9E ; ......l.
  AB7C  DB 0x76, 0x02, 0x86, 0x22, 0xDA, 0x02, 0x85, 0x02 ; v.."....
  AB84  DB 0x00, 0x0C, 0xC9, 0xA2, 0x01, 0x1D, 0xC9, 0xA2 ; ........
  AB8C  DB 0xE4, 0x02, 0x82, 0x01, 0x01, 0x1F, 0xA1, 0x9C ; ........
  AB94  DB 0x9D, 0xE9, 0x02, 0x8B, 0x30, 0x08, 0x00, 0x00 ; ....0...
  AB9C  DB 0x14, 0xAB, 0x9E, 0xEE, 0x02, 0x84, 0x01, 0x01 ; ........
  ABA4  DB 0x01, 0xA1, 0x54, 0x9E, 0x02, 0x03, 0x82, 0x01 ; ..T.....
  ABAC  DB 0x00, 0x00, 0xBA, 0x1C, 0x9E, 0x0C, 0x03, 0x8A ; ........
  ABB4  DB 0x6C, 0x0C, 0x03, 0x86, 0x33, 0x84, 0x03, 0x85 ; l...3...
  ABBC  DB 0x08, 0x00, 0x0B, 0xEB, 0xA2, 0x09, 0x0B, 0x28 ; .......(
  ABC4  DB 0x56, 0xA3, 0x0A, 0x1B, 0x28, 0x56, 0xA3, 0x0B ; V...(V..
  ABCC  DB 0x0C, 0x2B, 0xC9, 0xA2, 0x0C, 0x1C, 0x2B, 0xC9 ; .+....+.
  ABD4  DB 0xA2, 0x0D, 0x0D, 0x96, 0xEB, 0xA2, 0x0E, 0x11 ; ........
  ABDC  DB 0x9A, 0xEB, 0xA2, 0x0F, 0x15, 0x9E, 0xEB, 0xA2 ; ........
  ABE4  DB 0xE8, 0x03, 0x8C, 0x10, 0x60, 0x04, 0x82, 0x01 ; ....`...
  ABEC  DB 0x00, 0x1F, 0x31, 0x4C, 0x9D, 0x88, 0x04, 0x85 ; ..1L....
  ABF4  DB 0x03, 0x00, 0x12, 0xDB, 0xA2, 0x09, 0x13, 0x07 ; ........
  ABFC  DB 0xC9, 0xA2, 0x0A, 0x1B, 0x78, 0x46, 0xA3, 0x9C ; ....xF..
  AC04  DB 0x04, 0x84, 0x01, 0x00, 0x00, 0x31, 0x4C, 0x9D ; .....1L.
  AC0C  DB 0xE2, 0x04, 0x82, 0x01, 0x01, 0x1F, 0x92, 0xD8 ; ........
  AC14  DB 0x9D, 0xE2, 0x04, 0x86, 0x11, 0xE7, 0x04, 0x84 ; ........
  AC1C  DB 0x01, 0x01, 0x00, 0x92, 0xC8, 0x9C, 0x00, 0x05 ; ........
  AC24  DB 0x84, 0x01, 0x01, 0x00, 0x92, 0x80, 0x9E, 0x14 ; ........
  AC2C  DB 0x05, 0x82, 0x01, 0x00, 0x08, 0x31, 0x6C, 0x9E ; .....1l.
  AC34  DB 0x1E, 0x05, 0x86, 0x33, 0x1E, 0x05, 0x8A, 0x6C ; ...3...l
  AC3C  DB 0x96, 0x05, 0x85, 0x02, 0x00, 0x11, 0xEB, 0xA2 ; ........
  AC44  DB 0x09, 0x0C, 0x8C, 0xEB, 0xA2, 0xDC, 0x05, 0x8C ; ........
  AC4C  DB 0x00, 0x54, 0x06, 0x8B, 0x60, 0x0B, 0x26, 0x01 ; .T..`.&.
  AC54  DB 0x14, 0x55, 0xA0, 0xA4, 0x06, 0x85, 0x04, 0x00 ; .U......
  AC5C  DB 0x0F, 0xA0, 0xAA, 0x09, 0x12, 0x06, 0xAE, 0xAA ; ........
  AC64  DB 0x0A, 0x16, 0x1E, 0xBC, 0xAA, 0x0B, 0x13, 0x32 ; .......2
  AC6C  DB 0xD1, 0xAA, 0xEA, 0x06, 0x82, 0x02, 0x00, 0x1F ; ........
  AC74  DB 0x31, 0x1C, 0x9D, 0x01, 0x24, 0x13, 0x34, 0x9D ; 1...$.4.
  AC7C  DB 0xFE, 0x06, 0x85, 0x05, 0x00, 0x19, 0xC9, 0xA2 ; ........
  AC84  DB 0x09, 0x13, 0x1E, 0xC9, 0xA2, 0x0A, 0x0D, 0x3C ; .......<
  AC8C  DB 0xC9, 0xA2, 0x0B, 0x13, 0x5A, 0xC9, 0xA2, 0x0C ; ....Z...
  AC94  DB 0x19, 0x78, 0xC9, 0xA2, 0xD0, 0x07, 0x85, 0x04 ; .x......
  AC9C  DB 0x00, 0x1C, 0xDB, 0xA2, 0x09, 0x14, 0x1E, 0xDB ; ........
  ACA4  DB 0xA2, 0x0A, 0x0C, 0x3C, 0xDB, 0xA2, 0x0B, 0x1C ; ...<....
  ACAC  DB 0x5A, 0x56, 0xA3, 0x98, 0x08, 0x85, 0x05, 0x03 ; ZV......
  ACB4  DB 0x13, 0xDB, 0xA2, 0x0C, 0x0F, 0x02, 0xDB, 0xA2 ; ........
  ACBC  DB 0x0D, 0x17, 0x02, 0xDB, 0xA2, 0x0E, 0x0C, 0x04 ; ........
  ACC4  DB 0xBB, 0xA2, 0x0F, 0x1B, 0x04, 0xBB, 0xA2, 0x9B ; ........
  ACCC  DB 0x08, 0x8B, 0x40, 0x09, 0x02, 0x00, 0x14, 0xAB ; ..@.....
  ACD4  DB 0x9E, 0x9E, 0x08, 0x85, 0x06, 0x02, 0x0F, 0xDB ; ........
  ACDC  DB 0xA2, 0x03, 0x17, 0xDB, 0xA2, 0x0C, 0x13, 0x02 ; ........
  ACE4  DB 0xDB, 0xA2, 0x0D, 0x17, 0x0A, 0xEB, 0xA2, 0x0E ; ........
  ACEC  DB 0x13, 0x0E, 0xEB, 0xA2, 0x0F, 0x0C, 0x14, 0x86 ; ........
  ACF4  DB 0xA3, 0xFC, 0x08, 0x8C, 0x30, 0x60, 0x09, 0x81 ; ....0`..
  ACFC  DB 0x01, 0x20, 0x0C, 0xB4, 0xF0, 0x0A, 0x8C, 0xF0 ; . ......
  AD04  DB 0x54, 0x0B, 0x85, 0x03, 0x00, 0x0B, 0xC9, 0xA2 ; T.......
  AD0C  DB 0x01, 0x13, 0xC9, 0xA2, 0x02, 0x1B, 0xC9, 0xA2 ; ........
  AD14  DB 0x78, 0x0B, 0x82, 0x02, 0x00, 0x1F, 0x31, 0x9C ; x.....1.
  AD1C  DB 0x9D, 0x01, 0x20, 0x13, 0x40, 0xAD, 0x90, 0x0B ; .. .@...
  AD24  DB 0x8B, 0x60, 0x0E, 0x28, 0x01, 0x14, 0x54, 0xA1 ; .`.(..T.
  AD2C  DB 0xB8, 0x0B, 0x89, 0x61, 0xAD, 0x5C, 0xA6, 0x04 ; ...a.\..
  AD34  DB 0x01, 0x51, 0xA7, 0x4B, 0xAD, 0x03, 0x02, 0x07 ; .Q.K....
  AD3C  DB 0x00, 0x05, 0x03, 0x02, 0x04, 0x61, 0xAD, 0x01 ; .....a..
  AD44  DB 0x04, 0x64, 0x9B, 0x00, 0x00, 0xB7, 0x9D, 0x00 ; .d......
  AD4C  DB 0x00, 0x86, 0x33, 0x32, 0x00, 0x88, 0x31, 0xAD ; ..32..1.
  AD54  DB 0x32, 0x00, 0x85, 0x01, 0x00, 0x10, 0x96, 0xA3 ; 2.......
  AD5C  DB 0x32, 0x00, 0x89, 0xEF, 0xAA, 0x00, 0x00, 0x86 ; 2.......
  AD64  DB 0x33, 0x1E, 0x00, 0x88, 0x09, 0xAF, 0x64, 0x00 ; 3.....d.
  AD6C  DB 0x82, 0x02, 0x00, 0x12, 0x31, 0x84, 0x9D, 0x01 ; ....1...
  AD74  DB 0x13, 0x13, 0x0C, 0xAF, 0x6E, 0x00, 0x86, 0x11 ; ....n...
  AD7C  DB 0x6E, 0x00, 0x8A, 0x74, 0x8C, 0x00, 0x85, 0x03 ; n..t....
  AD84  DB 0x00, 0x16, 0xE4, 0xA3, 0x09, 0x17, 0x02, 0x56 ; .......V
  AD8C  DB 0xA3, 0x0A, 0x12, 0x32, 0xEB, 0xA2, 0xDC, 0x00 ; ...2....
  AD94  DB 0x82, 0x01, 0x00, 0x1F, 0x13, 0x90, 0x9D, 0xDF ; ........
  AD9C  DB 0x00, 0x84, 0x01, 0x00, 0x00, 0x13, 0x6C, 0x9D ; ......l.
  ADA4  DB 0xE1, 0x00, 0x8A, 0x6C, 0x04, 0x01, 0x85, 0x06 ; ...l....
  ADAC  DB 0x00, 0x1B, 0x56, 0xA3, 0x09, 0x1B, 0x03, 0xC9 ; ..V.....
  ADB4  DB 0xA2, 0x0A, 0x1D, 0x05, 0xC9, 0xA2, 0x0B, 0x0A ; ........
  ADBC  DB 0x0A, 0xA7, 0xA3, 0x0C, 0x12, 0x28, 0x36, 0xA3 ; .....(6.
  ADC4  DB 0x0D, 0x0F, 0xD2, 0x1E, 0xA4, 0x0E, 0x01, 0x84 ; ........
  ADCC  DB 0x01, 0x00, 0x00, 0x13, 0x80, 0x9E, 0x40, 0x01 ; ......@.
  ADD4  DB 0x8A, 0x74, 0xF4, 0x01, 0x8B, 0x80, 0x0D, 0x27 ; .t.....'
  ADDC  DB 0x01, 0x14, 0xE1, 0xA0, 0x26, 0x02, 0x85, 0x03 ; ....&...
  ADE4  DB 0x00, 0x14, 0xEB, 0xA2, 0x09, 0x0E, 0x3C, 0xBB ; ......<.
  ADEC  DB 0xA2, 0x0A, 0x11, 0x3E, 0xC9, 0xA2, 0x3A, 0x02 ; ...>..:.
  ADF4  DB 0x82, 0x01, 0x00, 0x06, 0x31, 0x54, 0x9E, 0x4E ; ....1T.N
  ADFC  DB 0x02, 0x84, 0x01, 0x00, 0x00, 0x31, 0xDC, 0x9C ; .....1..
  AE04  DB 0x6C, 0x02, 0x85, 0x02, 0x00, 0x12, 0xE4, 0xA3 ; l.......
  AE0C  DB 0x09, 0x14, 0x0A, 0xEB, 0xA2, 0x94, 0x02, 0x8B ; ........
  AE14  DB 0x60, 0x10, 0x29, 0x01, 0x14, 0x8A, 0xA1, 0xBC ; `.).....
  AE1C  DB 0x02, 0x81, 0x02, 0x3B, 0x32, 0x28, 0x3B, 0x32 ; ...;2(;2
  AE24  DB 0x28, 0xEE, 0x02, 0x8C, 0x18, 0xE8, 0x03, 0x80 ; (.......
  AE2C  DB 0x05, 0x02, 0x11, 0x08, 0xC8, 0x12, 0x08, 0x64 ; .......d
  AE34  DB 0xB0, 0x04, 0x81, 0x02, 0x1C, 0x04, 0xC8, 0x22 ; ......."
  AE3C  DB 0x03, 0x1E, 0xDC, 0x05, 0x81, 0x02, 0x16, 0x06 ; ........
  AE44  DB 0x78, 0x24, 0x14, 0x32, 0x0E, 0x06, 0x81, 0x02 ; x$.2....
  AE4C  DB 0x2C, 0x1E, 0x14, 0x24, 0x32, 0x28, 0x72, 0x06 ; ,..$2(r.
  AE54  DB 0x81, 0x03, 0x17, 0x08, 0x50, 0x0C, 0x0A, 0x3C ; ....P..<
  AE5C  DB 0x0E, 0x0A, 0x3C, 0x6C, 0x07, 0x80, 0x02, 0xD0 ; ..<l....
  AE64  DB 0x07, 0x85, 0x07, 0x00, 0x0F, 0xEB, 0xA2, 0x01 ; ........
  AE6C  DB 0x19, 0xEB, 0xA2, 0x0A, 0x11, 0x0F, 0x1E, 0xA4 ; ........
  AE74  DB 0x0B, 0x19, 0x1E, 0xDB, 0xA2, 0x0C, 0x18, 0x22 ; ......."
  AE7C  DB 0xDB, 0xA2, 0x0D, 0x17, 0x26, 0xDB, 0xA2, 0x0E ; ....&...
  AE84  DB 0x16, 0x2A, 0xDB, 0xA2, 0xF8, 0x07, 0x84, 0x01 ; .*......
  AE8C  DB 0x00, 0x00, 0x31, 0x4C, 0x9D, 0x34, 0x08, 0x85 ; ..1L.4..
  AE94  DB 0x06, 0x00, 0x0B, 0x36, 0xA3, 0x01, 0x1C, 0x36 ; ...6...6
  AE9C  DB 0xA3, 0x0A, 0x0C, 0x03, 0xC9, 0xA2, 0x0B, 0x1D ; ........
  AEA4  DB 0x03, 0xC9, 0xA2, 0x0E, 0x0B, 0x11, 0xDB, 0xA2 ; ........
  AEAC  DB 0x0F, 0x1D, 0x11, 0xDB, 0xA2, 0x3E, 0x08, 0x8B ; .....>..
  AEB4  DB 0x60, 0x0C, 0x02, 0x01, 0x14, 0xFA, 0x9E, 0x98 ; `.......
  AEBC  DB 0x08, 0x85, 0x04, 0x00, 0x12, 0xEB, 0xA2, 0x09 ; ........
  AEC4  DB 0x13, 0x46, 0xDB, 0xA2, 0x0A, 0x14, 0xFA, 0xE4 ; .F......
  AECC  DB 0xA3, 0x0B, 0x15, 0x42, 0xD1, 0xAA, 0xFC, 0x08 ; ...B....
  AED4  DB 0x8C, 0x20, 0xFC, 0x08, 0x80, 0x06, 0x03, 0x36 ; . .....6
  AEDC  DB 0x03, 0xC8, 0x3A, 0x0A, 0x78, 0x35, 0x08, 0xF0 ; ..:.x5..
  AEE4  DB 0xF0, 0x0A, 0x80, 0x02, 0x54, 0x0B, 0x85, 0x03 ; ....T...
  AEEC  DB 0x00, 0x1E, 0xA7, 0xA3, 0x09, 0x0F, 0x05, 0xE4 ; ........
  AEF4  DB 0xA3, 0x0A, 0x19, 0x14, 0xD1, 0xAA, 0x86, 0x0B ; ........
  AEFC  DB 0x8B, 0x90, 0x0F, 0x2A, 0x01, 0x14, 0xDE, 0xA1 ; ...*....
  AF04  DB 0xB8, 0x0B, 0x89, 0x1F, 0xAF, 0x01, 0x07, 0x02 ; ........
  AF0C  DB 0x00, 0x06, 0x02, 0x02, 0x03, 0xA0, 0x9B, 0x02 ; ........
  AF14  DB 0x01, 0xB3, 0x9B, 0x02, 0x05, 0x91, 0x9B, 0x00 ; ........
  AF1C  DB 0x02, 0x8B, 0x9B, 0x00, 0x00, 0x86, 0x11, 0x1E ; ........
  AF24  DB 0x00, 0x88, 0xBF, 0xB1, 0x1E, 0x00, 0x8A, 0x74 ; .......t
  AF2C  DB 0x50, 0x00, 0x85, 0x03, 0x00, 0x15, 0xC9, 0xA2 ; P.......
  AF34  DB 0x01, 0x18, 0xC9, 0xA2, 0x02, 0x1B, 0xC9, 0xA2 ; ........
  AF3C  DB 0x64, 0x00, 0x82, 0x01, 0x00, 0x08, 0xA1, 0x6C ; d......l
  AF44  DB 0x9E, 0x68, 0x00, 0x84, 0x01, 0x00, 0x00, 0xA1 ; .h......
  AF4C  DB 0xE8, 0x9D, 0xB4, 0x00, 0x85, 0x04, 0x00, 0x1C ; ........
  AF54  DB 0x36, 0xA3, 0x09, 0x1C, 0x05, 0xBB, 0xA2, 0x0A ; 6.......
  AF5C  DB 0x1C, 0x0A, 0xBB, 0xA2, 0x0B, 0x1C, 0x0F, 0xBB ; ........
  AF64  DB 0xA2, 0xB9, 0x00, 0x84, 0x01, 0x00, 0xFE, 0xA1 ; ........
  AF6C  DB 0xC8, 0x9D, 0xBE, 0x00, 0x82, 0x02, 0x01, 0x12 ; ........
  AF74  DB 0x92, 0xD8, 0x9D, 0x02, 0x13, 0xA1, 0x9C, 0x9D ; ........
  AF7C  DB 0xC8, 0x00, 0x83, 0x02, 0x01, 0x00, 0x02, 0x01 ; ........
  AF84  DB 0xC8, 0x00, 0x82, 0x02, 0x02, 0x12, 0x92, 0xB4 ; ........
  AF8C  DB 0x9D, 0x03, 0x13, 0xA1, 0x54, 0x9E, 0xFA, 0x00 ; ....T...
  AF94  DB 0x8A, 0xE6, 0xFA, 0x00, 0x86, 0x22, 0x8B, 0x01 ; ....."..
  AF9C  DB 0x82, 0x01, 0x00, 0x08, 0xBA, 0x1C, 0x9E, 0x90 ; ........
  AFA4  DB 0x01, 0x8B, 0x60, 0x0A, 0x29, 0x01, 0x14, 0xC7 ; ..`.)...
  AFAC  DB 0xB1, 0x92, 0x01, 0x85, 0x01, 0x07, 0x13, 0xDB ; ........
  AFB4  DB 0xA2, 0xAE, 0x01, 0x8A, 0x6C, 0xB8, 0x01, 0x84 ; ....l...
  AFBC  DB 0x01, 0x00, 0x00, 0xBA, 0xB4, 0x9C, 0xCC, 0x01 ; ........
  AFC4  DB 0x82, 0x02, 0x01, 0x1F, 0xA1, 0x1C, 0x9D, 0x02 ; ........
  AFCC  DB 0x24, 0x92, 0x34, 0x9D, 0x26, 0x02, 0x85, 0x08 ; $.4.&...
  AFD4  DB 0x00, 0x0B, 0xBC, 0xAA, 0x09, 0x0B, 0x0F, 0xC9 ; ........
  AFDC  DB 0xA2, 0x0A, 0x0B, 0x1E, 0xC9, 0xA2, 0x0B, 0x0B ; ........
  AFE4  DB 0x2D, 0xC9, 0xA2, 0x0C, 0x0B, 0x3C, 0xC9, 0xA2 ; -....<..
  AFEC  DB 0x0D, 0x0B, 0x4B, 0xDB, 0xA2, 0x0E, 0x0B, 0x5A ; ..K....Z
  AFF4  DB 0xC9, 0xA2, 0x0F, 0x0B, 0x69, 0xC9, 0xA2, 0x30 ; ....i..0
  AFFC  DB 0x02, 0x84, 0x02, 0x01, 0x00, 0xA1, 0xDC, 0x9C ; ........
  B004  DB 0x02, 0x00, 0x92, 0xFC, 0x9C, 0xC6, 0x02, 0x84 ; ........
  B00C  DB 0x01, 0x00, 0x00, 0xBA, 0x4C, 0x9D, 0xEE, 0x02 ; ....L...
  B014  DB 0x8A, 0xE6, 0x20, 0x03, 0x83, 0x02, 0x01, 0x00 ; .. .....
  B01C  DB 0x02, 0x03, 0x20, 0x03, 0x84, 0x01, 0x03, 0x00 ; .. .....
  B024  DB 0x92, 0x60, 0x9E, 0x2A, 0x03, 0x85, 0x08, 0x00 ; .`.*....
  B02C  DB 0x0B, 0xDB, 0xA2, 0x09, 0x0B, 0x0F, 0xDB, 0xA2 ; ........
  B034  DB 0x0A, 0x0B, 0x1E, 0xC9, 0xA2, 0x0B, 0x0B, 0x2D ; .......-
  B03C  DB 0xDB, 0xA2, 0x0C, 0x0B, 0x3C, 0xDB, 0xA2, 0x0D ; ....<...
  B044  DB 0x0B, 0x4B, 0xC9, 0xA2, 0x0E, 0x0B, 0x5A, 0xDB ; .K....Z.
  B04C  DB 0xA2, 0x0F, 0x0B, 0x69, 0xDB, 0xA2, 0x36, 0x03 ; ...i..6.
  B054  DB 0x82, 0x02, 0x01, 0x1A, 0x92, 0x34, 0x9D, 0x02 ; .....4..
  B05C  DB 0x1B, 0xA1, 0x54, 0x9E, 0x5E, 0x03, 0x87, 0x02 ; ..T.^...
  B064  DB 0x00, 0x01, 0x84, 0x03, 0x8C, 0x20, 0x7E, 0x04 ; ..... ~.
  B06C  DB 0x85, 0x01, 0x00, 0x08, 0x09, 0xA3, 0xBA, 0x04 ; ........
  B074  DB 0x85, 0x05, 0x00, 0x0B, 0xC9, 0xA2, 0x01, 0x1D ; ........
  B07C  DB 0xC9, 0xA2, 0x0A, 0x14, 0x0A, 0xDB, 0xA2, 0x0B ; ........
  B084  DB 0x0B, 0x14, 0xC9, 0xA2, 0x0C, 0x1D, 0x14, 0xC9 ; ........
  B08C  DB 0xA2, 0x14, 0x05, 0x82, 0x01, 0x00, 0x1F, 0xAB ; ........
  B094  DB 0xB4, 0x9D, 0x16, 0x05, 0x86, 0x33, 0x46, 0x05 ; .....3F.
  B09C  DB 0x8A, 0x6C, 0x46, 0x05, 0x8C, 0x10, 0x78, 0x05 ; .lF...x.
  B0A4  DB 0x81, 0x02, 0x3A, 0x05, 0x0A, 0x1E, 0x0A, 0x78 ; ..:....x
  B0AC  DB 0xDC, 0x05, 0x81, 0x01, 0x43, 0x04, 0xC8, 0xA4 ; ....C...
  B0B4  DB 0x06, 0x82, 0x01, 0x00, 0x1F, 0xBA, 0x84, 0x9D ; ........
  B0BC  DB 0xAE, 0x06, 0x86, 0x22, 0xB8, 0x06, 0x8A, 0xE6 ; ..."....
  B0C4  DB 0xF4, 0x06, 0x85, 0x03, 0x00, 0x12, 0x46, 0xA3 ; ......F.
  B0CC  DB 0x0E, 0x0C, 0x14, 0x46, 0xA3, 0x0F, 0x1B, 0x14 ; ...F....
  B0D4  DB 0x46, 0xA3, 0x03, 0x07, 0x8B, 0x80, 0x0F, 0x28 ; F......(
  B0DC  DB 0x01, 0x14, 0x54, 0xA1, 0x0C, 0x07, 0x85, 0x02 ; ..T.....
  B0E4  DB 0x06, 0x0C, 0xDB, 0xA2, 0x07, 0x1B, 0xDB, 0xA2 ; ........
  B0EC  DB 0x0D, 0x07, 0x82, 0x01, 0x00, 0x08, 0x92, 0x34 ; .......4
  B0F4  DB 0x9E, 0x44, 0x07, 0x84, 0x01, 0x00, 0x00, 0x92 ; .D......
  B0FC  DB 0x90, 0x9D, 0xC6, 0x07, 0x85, 0x02, 0x00, 0x10 ; ........
  B104  DB 0xBB, 0xA2, 0x01, 0x18, 0xBB, 0xA2, 0x92, 0x08 ; ........
  B10C  DB 0x85, 0x02, 0x00, 0x10, 0xC9, 0xA2, 0x01, 0x1D ; ........
  B114  DB 0xC9, 0xA2, 0x98, 0x08, 0x8B, 0x80, 0x11, 0x29 ; .......)
  B11C  DB 0x01, 0x1A, 0x8A, 0xA1, 0xFC, 0x08, 0x82, 0x01 ; ........
  B124  DB 0x02, 0x00, 0x92, 0x34, 0x9E, 0xFC, 0x08, 0x8C ; ...4....
  B12C  DB 0x10, 0x9C, 0x09, 0x82, 0x02, 0x00, 0x0A, 0x92 ; ........
  B134  DB 0xB4, 0x9D, 0x01, 0x0B, 0xA1, 0x90, 0x9E, 0xA2 ; ........
  B13C  DB 0x09, 0x87, 0x02, 0x01, 0x02, 0x1E, 0x0A, 0x82 ; ........
  B144  DB 0x02, 0x00, 0x13, 0xA1, 0x1C, 0x9D, 0x01, 0x14 ; ........
  B14C  DB 0x92, 0xFC, 0x9D, 0x28, 0x0A, 0x85, 0x05, 0x00 ; ...(....
  B154  DB 0x0A, 0xBC, 0xAA, 0x09, 0x14, 0x46, 0x8F, 0xAA ; .....F..
  B15C  DB 0x0A, 0x18, 0x5A, 0x9C, 0xAA, 0x0B, 0x17, 0x64 ; ..Z....d
  B164  DB 0x9E, 0xA3, 0x0C, 0x1C, 0x6E, 0x8F, 0xAA, 0x46 ; ....n..F
  B16C  DB 0x0A, 0x84, 0x02, 0x00, 0x01, 0xA1, 0xE8, 0x9D ; ........
  B174  DB 0x01, 0xFF, 0x92, 0x34, 0x9D, 0x68, 0x0A, 0x87 ; ...4.h..
  B17C  DB 0x02, 0x00, 0x01, 0x8C, 0x0A, 0x82, 0x02, 0x00 ; ........
  B184  DB 0x14, 0xA1, 0x1C, 0x9D, 0x01, 0x15, 0x92, 0x34 ; .......4
  B18C  DB 0x9E, 0x8C, 0x0A, 0x86, 0x11, 0x8C, 0x0A, 0x8A ; ........
  B194  DB 0x74, 0x9C, 0x0A, 0x84, 0x01, 0x00, 0xFF, 0xA1 ; t.......
  B19C  DB 0x9C, 0x9D, 0xF0, 0x0A, 0x85, 0x03, 0x00, 0x0F ; ........
  B1A4  DB 0xD1, 0xAA, 0x09, 0x13, 0x1E, 0xD1, 0xAA, 0x0A ; ........
  B1AC  DB 0x1B, 0x46, 0x36, 0xA3, 0x54, 0x0B, 0x8B, 0x90 ; .F6.T...
  B1B4  DB 0x0A, 0x23, 0x00, 0x14, 0x43, 0x9F, 0xB8, 0x0B ; .#..C...
  B1BC  DB 0x89, 0xDE, 0xB1, 0x00, 0x02, 0x04, 0x06, 0x01 ; ........
  B1C4  DB 0x03, 0x05, 0x07, 0x00, 0x01, 0x86, 0x4A, 0xF0 ; ......J.
  B1CC  DB 0xE0, 0x4A, 0xF0, 0x18, 0x4C, 0xE0, 0xC0, 0x4C ; .J..L..L
  B1D4  DB 0xE0, 0x38, 0x4E, 0xD0, 0xE0, 0x4E, 0xD0, 0x18 ; .8N..N..
  B1DC  DB 0x00, 0x00, 0x00, 0x00, 0x86, 0x11, 0x00, 0x00 ; ........
  B1E4  DB 0x8A, 0x74, 0x1E, 0x00, 0x88, 0xF5, 0xB3, 0x32 ; .t.....2
  B1EC  DB 0x00, 0x8C, 0x10, 0x32, 0x00, 0x85, 0x02, 0x00 ; ...2....
  B1F4  DB 0x18, 0xEB, 0xA2, 0x09, 0x13, 0x37, 0x76, 0xA3 ; .....7v.
  B1FC  DB 0x63, 0x00, 0x82, 0x04, 0x00, 0x08, 0xA1, 0x90 ; c.......
  B204  DB 0x9E, 0x01, 0x11, 0x92, 0xD8, 0x9D, 0x02, 0x14 ; ........
  B20C  DB 0xA1, 0x90, 0x9E, 0x03, 0x21, 0x92, 0xD8, 0x9D ; ....!...
  B214  DB 0x64, 0x00, 0x84, 0x04, 0x00, 0x00, 0xA1, 0xB4 ; d.......
  B21C  DB 0x9C, 0x01, 0x00, 0x92, 0xC8, 0x9C, 0x02, 0x00 ; ........
  B224  DB 0xA1, 0xDC, 0x9C, 0x03, 0x00, 0x92, 0x34, 0x9D ; ......4.
  B22C  DB 0xA0, 0x00, 0x84, 0x02, 0x02, 0x00, 0xA1, 0x54 ; .......T
  B234  DB 0x9E, 0x03, 0x00, 0x92, 0x60, 0x9E, 0xFA, 0x00 ; ....`...
  B23C  DB 0x83, 0x01, 0x01, 0x03, 0xFA, 0x00, 0x84, 0x02 ; ........
  B244  DB 0x00, 0x00, 0xA1, 0x4C, 0x9D, 0x03, 0x01, 0x92 ; ...L....
  B24C  DB 0x60, 0x9E, 0x02, 0x01, 0x82, 0x02, 0x01, 0x0D ; `.......
  B254  DB 0x92, 0x6C, 0x9D, 0x02, 0x0E, 0xA1, 0x54, 0x9E ; .l....T.
  B25C  DB 0x0A, 0x01, 0x84, 0x01, 0x01, 0x00, 0x92, 0xFC ; ........
  B264  DB 0x9C, 0x72, 0x01, 0x85, 0x08, 0x00, 0x13, 0x46 ; .r.....F
  B26C  DB 0xA3, 0x01, 0x11, 0x46, 0xA3, 0x0A, 0x13, 0x03 ; ...F....
  B274  DB 0x46, 0xA3, 0x0B, 0x11, 0x03, 0x46, 0xA3, 0x0C ; F....F..
  B27C  DB 0x13, 0x05, 0x76, 0xA3, 0x0D, 0x11, 0x05, 0x46 ; ..v....F
  B284  DB 0xA3, 0x0E, 0x13, 0x07, 0x46, 0xA3, 0x0F, 0x11 ; ....F...
  B28C  DB 0x07, 0x46, 0xA3, 0xC2, 0x01, 0x85, 0x04, 0x00 ; .F......
  B294  DB 0x1C, 0x46, 0xA3, 0x09, 0x10, 0x46, 0x46, 0xA3 ; .F...FF.
  B29C  DB 0x0A, 0x1A, 0x5A, 0x46, 0xA3, 0x0B, 0x12, 0xA0 ; ..ZF....
  B2A4  DB 0x46, 0xA3, 0x8A, 0x02, 0x84, 0x01, 0x01, 0x00 ; F.......
  B2AC  DB 0x92, 0x80, 0x9E, 0xBC, 0x02, 0x82, 0x01, 0x01 ; ........
  B2B4  DB 0x08, 0xA1, 0x6C, 0x9E, 0xC6, 0x02, 0x86, 0x22 ; ..l...."
  B2BC  DB 0xE4, 0x02, 0x82, 0x01, 0x00, 0x08, 0x92, 0x80 ; ........
  B2C4  DB 0x9E, 0xEE, 0x02, 0x86, 0x11, 0xEE, 0x02, 0x85 ; ........
  B2CC  DB 0x04, 0x00, 0x1A, 0x46, 0xA3, 0x09, 0x14, 0xE6 ; ...F....
  B2D4  DB 0x46, 0xA3, 0x0A, 0x12, 0xE6, 0x46, 0xA3, 0x0B ; F....F..
  B2DC  DB 0x19, 0xE6, 0x46, 0xA3, 0xCA, 0x03, 0x82, 0x01 ; ..F.....
  B2E4  DB 0x01, 0x08, 0xA1, 0x90, 0x9E, 0xCF, 0x03, 0x82 ; ........
  B2EC  DB 0x01, 0x00, 0x08, 0x92, 0x80, 0x9E, 0x47, 0x04 ; ......G.
  B2F4  DB 0x82, 0x01, 0x00, 0x08, 0xA1, 0x90, 0x9E, 0x47 ; .......G
  B2FC  DB 0x04, 0x86, 0x22, 0x60, 0x04, 0x85, 0x04, 0x00 ; .."`....
  B304  DB 0x0C, 0x46, 0xA3, 0x09, 0x0D, 0x50, 0x36, 0xA3 ; .F...P6.
  B30C  DB 0x0A, 0x1C, 0xC8, 0x46, 0xA3, 0x0B, 0x18, 0xD2 ; ...F....
  B314  DB 0x46, 0xA3, 0x7E, 0x04, 0x82, 0x01, 0x00, 0x1F ; F.~.....
  B31C  DB 0xA1, 0x9C, 0x9D, 0x88, 0x04, 0x82, 0x01, 0x01 ; ........
  B324  DB 0x1F, 0x92, 0x90, 0x9D, 0xB0, 0x04, 0x81, 0x01 ; ........
  B32C  DB 0x44, 0x64, 0x1E, 0x78, 0x05, 0x85, 0x04, 0x00 ; Dd.x....
  B334  DB 0x1C, 0x46, 0xA3, 0x09, 0x18, 0x28, 0x46, 0xA3 ; .F...(F.
  B33C  DB 0x0A, 0x1C, 0x3C, 0x46, 0xA3, 0x0B, 0x0D, 0x96 ; ..<F....
  B344  DB 0xEB, 0xA2, 0x8C, 0x05, 0x82, 0x02, 0x00, 0x15 ; ........
  B34C  DB 0xA1, 0x1C, 0x9D, 0x01, 0x16, 0x92, 0xFC, 0x9D ; ........
  B354  DB 0xDC, 0x05, 0x84, 0x01, 0x01, 0xFF, 0x92, 0xFC ; ........
  B35C  DB 0x9C, 0x40, 0x06, 0x81, 0x01, 0x44, 0x64, 0x1E ; .@...Dd.
  B364  DB 0x72, 0x06, 0x85, 0x02, 0x00, 0x0D, 0x36, 0xA3 ; r.....6.
  B36C  DB 0x09, 0x10, 0x32, 0x36, 0xA3, 0x6C, 0x07, 0x8B ; ..26.l..
  B374  DB 0x40, 0x0C, 0x26, 0x03, 0x11, 0x55, 0xA0, 0xD0 ; @.&..U..
  B37C  DB 0x07, 0x8C, 0x30, 0x0C, 0x08, 0x85, 0x05, 0x00 ; ..0.....
  B384  DB 0x14, 0x36, 0xA3, 0x09, 0x14, 0x14, 0x36, 0xA3 ; .6....6.
  B38C  DB 0x0A, 0x14, 0x28, 0x36, 0xA3, 0x0B, 0x14, 0x3C ; ..(6...<
  B394  DB 0x36, 0xA3, 0x0C, 0x12, 0xFA, 0xEB, 0xA2, 0x2E ; 6.......
  B39C  DB 0x09, 0x82, 0x01, 0x00, 0x08, 0x31, 0xE8, 0x9D ; .....1..
  B3A4  DB 0x92, 0x09, 0x84, 0x01, 0x00, 0x00, 0x31, 0xB4 ; ......1.
  B3AC  DB 0x9C, 0xB5, 0x09, 0x85, 0x03, 0x00, 0x0D, 0x56 ; .......V
  B3B4  DB 0xA3, 0x01, 0x16, 0x36, 0xA3, 0x02, 0x1D, 0x46 ; ...6...F
  B3BC  DB 0xA3, 0xC4, 0x09, 0x81, 0x02, 0x1E, 0x1E, 0x3C ; .......<
  B3C4  DB 0x20, 0x0A, 0xB4, 0xF0, 0x0A, 0x86, 0x11, 0xF0 ;  .......
  B3CC  DB 0x0A, 0x84, 0x02, 0x00, 0xFF, 0x31, 0x1C, 0x9D ; .....1..
  B3D4  DB 0x01, 0x00, 0x92, 0x34, 0x9E, 0x22, 0x0B, 0x85 ; ...4."..
  B3DC  DB 0x02, 0x00, 0x17, 0x36, 0xA3, 0x09, 0x0C, 0x32 ; ...6...2
  B3E4  DB 0xEB, 0xA2, 0x86, 0x0B, 0x8B, 0x70, 0x0E, 0x25 ; .....p.%
  B3EC  DB 0x03, 0x14, 0xDE, 0x9F, 0xB8, 0x0B, 0x89, 0xFD ; ........
  B3F4  DB 0xB3, 0x05, 0x1F, 0xAF, 0xFD, 0xB3, 0x03, 0x02 ; ........
  B3FC  DB 0x07, 0x00, 0x00, 0x86, 0x11, 0x0A, 0x00, 0x8A ; ........
  B404  DB 0x74, 0x1E, 0x00, 0x88, 0x04, 0xB6, 0xC8, 0x00 ; t.......
  B40C  DB 0x82, 0x02, 0x00, 0x18, 0x92, 0x34, 0x9D, 0x01 ; .....4..
  B414  DB 0x19, 0xA1, 0x6C, 0x9E, 0xDC, 0x00, 0x84, 0x01 ; ..l.....
  B41C  DB 0x00, 0x01, 0x92, 0xFC, 0x9D, 0xF0, 0x00, 0x8B ; ........
  B424  DB 0x30, 0x0D, 0x01, 0x03, 0x0F, 0xB8, 0x9E, 0x2F ; 0....../
  B42C  DB 0x01, 0x85, 0x02, 0x00, 0x0B, 0xC9, 0xA2, 0x0F ; ........
  B434  DB 0x13, 0xFA, 0xEB, 0xA2, 0x36, 0x01, 0x8B, 0x50 ; ....6..P
  B43C  DB 0x10, 0x29, 0x03, 0x0F, 0x8A, 0xA1, 0x58, 0x02 ; .)....X.
  B444  DB 0x8B, 0x60, 0x0E, 0x2A, 0x03, 0x14, 0xDE, 0xA1 ; .`.*....
  B44C  DB 0x5A, 0x02, 0x85, 0x02, 0x06, 0x0E, 0x36, 0xA3 ; Z.....6.
  B454  DB 0x07, 0x16, 0x36, 0xA3, 0x62, 0x02, 0x85, 0x02 ; ..6.b...
  B45C  DB 0x06, 0x0E, 0xDB, 0xA2, 0x07, 0x17, 0xDB, 0xA2 ; ........
  B464  DB 0xB4, 0x02, 0x82, 0x01, 0x00, 0x08, 0xA1, 0x6C ; .......l
  B46C  DB 0x9E, 0xBC, 0x02, 0x82, 0x04, 0x00, 0x0E, 0xA1 ; ........
  B474  DB 0x84, 0x9D, 0x01, 0x13, 0x92, 0x90, 0x9D, 0x02 ; ........
  B47C  DB 0x14, 0xA1, 0x6C, 0x9E, 0x03, 0x1F, 0x92, 0xB4 ; ..l.....
  B484  DB 0x9D, 0xC0, 0x02, 0x84, 0x02, 0x02, 0x01, 0xA1 ; ........
  B48C  DB 0x1C, 0x9E, 0x03, 0x01, 0x92, 0x34, 0x9E, 0xC6 ; .....4..
  B494  DB 0x02, 0x86, 0x22, 0xC6, 0x02, 0x8A, 0xE6, 0x4C ; .."....L
  B49C  DB 0x03, 0x85, 0x02, 0x00, 0x0C, 0xC9, 0xA2, 0x01 ; ........
  B4A4  DB 0x1C, 0xC9, 0xA2, 0x55, 0x03, 0x8B, 0x50, 0x0D ; ...U..P.
  B4AC  DB 0x27, 0x03, 0x14, 0xE1, 0xA0, 0x5C, 0x03, 0x82 ; '....\..
  B4B4  DB 0x01, 0x00, 0x1F, 0xA1, 0x1C, 0x9D, 0x1A, 0x04 ; ........
  B4BC  DB 0x82, 0x02, 0x01, 0x12, 0x92, 0x34, 0x9D, 0x02 ; .....4..
  B4C4  DB 0x13, 0xA1, 0x54, 0x9E, 0x7E, 0x04, 0x85, 0x01 ; ..T.~...
  B4CC  DB 0x00, 0x14, 0xEB, 0xA2, 0xE2, 0x04, 0x8B, 0x60 ; .......`
  B4D4  DB 0x0A, 0x23, 0x03, 0x14, 0x43, 0x9F, 0xE2, 0x04 ; .#..C...
  B4DC  DB 0x85, 0x04, 0x04, 0x0D, 0x46, 0xA3, 0x05, 0x19 ; ....F...
  B4E4  DB 0x46, 0xA3, 0x0E, 0x0C, 0x03, 0xDB, 0xA2, 0x0F ; F.......
  B4EC  DB 0x1A, 0x03, 0xDB, 0xA2, 0xF6, 0x04, 0x81, 0x01 ; ........
  B4F4  DB 0x20, 0x1E, 0x3C, 0x14, 0x05, 0x82, 0x01, 0x00 ;  .<.....
  B4FC  DB 0x08, 0xBA, 0x6C, 0x9E, 0x19, 0x05, 0x84, 0x01 ; ..l.....
  B504  DB 0x00, 0x00, 0xBA, 0x1C, 0x9E, 0x1E, 0x05, 0x86 ; ........
  B50C  DB 0x33, 0xAA, 0x05, 0x82, 0x02, 0x00, 0x06, 0x92 ; 3.......
  B514  DB 0x60, 0x9E, 0x01, 0x08, 0xAB, 0x80, 0x9E, 0xAA ; `.......
  B51C  DB 0x05, 0x86, 0x11, 0xAA, 0x05, 0x8A, 0x74, 0xA4 ; ......t.
  B524  DB 0x06, 0x85, 0x06, 0x00, 0x0B, 0xC9, 0xA2, 0x01 ; ........
  B52C  DB 0x1C, 0xC9, 0xA2, 0x0A, 0x0D, 0x03, 0xC9, 0xA2 ; ........
  B534  DB 0x0B, 0x1A, 0x03, 0xC9, 0xA2, 0x0C, 0x0E, 0x06 ; ........
  B53C  DB 0xC9, 0xA2, 0x0D, 0x19, 0x06, 0xC9, 0xA2, 0xB0 ; ........
  B544  DB 0x06, 0x8B, 0x40, 0x0B, 0x23, 0x01, 0x14, 0xFA ; ..@.#...
  B54C  DB 0x9E, 0x3A, 0x07, 0x82, 0x04, 0x00, 0x16, 0x92 ; .:......
  B554  DB 0x90, 0x9D, 0x01, 0x17, 0xA1, 0xE8, 0x9D, 0x02 ; ........
  B55C  DB 0x1B, 0x92, 0xFC, 0x9D, 0x03, 0x1C, 0xA1, 0x6C ; .......l
  B564  DB 0x9E, 0x6C, 0x07, 0x86, 0x22, 0x6C, 0x07, 0x8A ; .l.."l..
  B56C  DB 0xE6, 0x66, 0x08, 0x85, 0x04, 0x00, 0x0F, 0x46 ; .f.....F
  B574  DB 0xA3, 0x01, 0x16, 0x46, 0xA3, 0x0A, 0x0F, 0x03 ; ...F....
  B57C  DB 0xDB, 0xA2, 0x0B, 0x16, 0x03, 0xDB, 0xA2, 0x72 ; .......r
  B584  DB 0x08, 0x8B, 0x50, 0x0A, 0x24, 0x03, 0x14, 0x81 ; ..P.$...
  B58C  DB 0x9F, 0xFC, 0x08, 0x85, 0x06, 0x00, 0x14, 0x9E ; ........
  B594  DB 0xA3, 0x09, 0x0A, 0x23, 0x9E, 0xA3, 0x0A, 0x11 ; ...#....
  B59C  DB 0x5A, 0x9E, 0xA3, 0x0B, 0x14, 0x64, 0x9E, 0xA3 ; Z....d..
  B5A4  DB 0x0C, 0x17, 0xB4, 0x9E, 0xA3, 0x0D, 0x13, 0xC4 ; ........
  B5AC  DB 0x46, 0xA3, 0xC4, 0x09, 0x8B, 0x50, 0x0F, 0x28 ; F....P.(
  B5B4  DB 0x03, 0x14, 0x54, 0xA1, 0x28, 0x0A, 0x85, 0x03 ; ..T.(...
  B5BC  DB 0x00, 0x11, 0x9E, 0xA3, 0x09, 0x12, 0x04, 0x9E ; ........
  B5C4  DB 0xA3, 0x0D, 0x12, 0x60, 0x46, 0xA3, 0x8C, 0x0A ; ...`F...
  B5CC  DB 0x8B, 0x40, 0x0A, 0x26, 0x03, 0x14, 0x55, 0xA0 ; .@.&..U.
  B5D4  DB 0xF0, 0x0A, 0x85, 0x06, 0x00, 0x0B, 0x9E, 0xA3 ; ........
  B5DC  DB 0x09, 0x12, 0x78, 0x9E, 0xA3, 0x0A, 0x13, 0x79 ; ..x....y
  B5E4  DB 0x9E, 0xA3, 0x0B, 0x10, 0x7A, 0x9E, 0xA3, 0x0C ; ....z...
  B5EC  DB 0x0A, 0x32, 0x7F, 0xAA, 0x0D, 0x12, 0x46, 0xA0 ; .2....F.
  B5F4  DB 0xAA, 0x86, 0x0B, 0x8B, 0x70, 0x0A, 0x2B, 0x03 ; ....p.+.
  B5FC  DB 0x14, 0x06, 0xB6, 0xB8, 0x0B, 0x89, 0x1A, 0xB6 ; ........
  B604  DB 0x04, 0x03, 0x00, 0x01, 0x82, 0x49, 0xE8, 0xD8 ; .....I..
  B60C  DB 0x49, 0xE8, 0x18, 0x00, 0xFF, 0x02, 0x01, 0xFA ; I.......
  B614  DB 0x68, 0x9F, 0x02, 0x02, 0x68, 0x9F, 0x00, 0x00 ; h...h...
  B61C  DB 0x86, 0x22, 0x1E, 0x00, 0x88, 0x87, 0xB7, 0x1E ; ."......
  B624  DB 0x00, 0x8A, 0xE6, 0x46, 0x00, 0x85, 0x05, 0x00 ; ...F....
  B62C  DB 0x1C, 0x46, 0xA3, 0x09, 0x14, 0x14, 0xDB, 0xA2 ; .F......
  B634  DB 0x0A, 0x1C, 0x50, 0x76, 0xA3, 0x0B, 0x16, 0x58 ; ..Pv...X
  B63C  DB 0xEB, 0xA2, 0x0C, 0x0B, 0x5A, 0x96, 0xA3, 0xC8 ; ....Z...
  B644  DB 0x00, 0x82, 0x02, 0x00, 0x14, 0xA1, 0x54, 0x9E ; ......T.
  B64C  DB 0x01, 0x15, 0x92, 0x80, 0x9E, 0xFA, 0x00, 0x85 ; ........
  B654  DB 0x02, 0x00, 0x12, 0x46, 0xA3, 0x0F, 0x0A, 0x0F ; ...F....
  B65C  DB 0xEB, 0xA2, 0xFC, 0x00, 0x8B, 0x20, 0x0B, 0x00 ; ..... ..
  B664  DB 0x03, 0x14, 0xAB, 0x9E, 0x04, 0x01, 0x82, 0x02 ; ........
  B66C  DB 0x02, 0x0F, 0xA1, 0x6C, 0x9E, 0x03, 0x10, 0x92 ; ...l....
  B674  DB 0x9C, 0x9E, 0x04, 0x01, 0x86, 0x11, 0x13, 0x01 ; ........
  B67C  DB 0x82, 0x02, 0x00, 0x06, 0xA1, 0xE8, 0x9D, 0x01 ; ........
  B684  DB 0x08, 0x92, 0x9C, 0x9E, 0x72, 0x01, 0x84, 0x01 ; ....r...
  B68C  DB 0x00, 0x00, 0xA1, 0xDC, 0x9C, 0x90, 0x01, 0x84 ; ........
  B694  DB 0x01, 0x00, 0x00, 0xA1, 0x9C, 0x9D, 0xAE, 0x01 ; ........
  B69C  DB 0x82, 0x01, 0x00, 0x08, 0xA1, 0x6C, 0x9E, 0xB6 ; .....l..
  B6A4  DB 0x01, 0x84, 0x01, 0x00, 0xFF, 0xA1, 0x9C, 0x9D ; ........
  B6AC  DB 0xC2, 0x01, 0x85, 0x08, 0x00, 0x1C, 0x66, 0xA3 ; ......f.
  B6B4  DB 0x09, 0x1C, 0x0B, 0x66, 0xA3, 0x0A, 0x1C, 0x15 ; ...f....
  B6BC  DB 0x66, 0xA3, 0x0B, 0x1C, 0x1F, 0x66, 0xA3, 0x0C ; f....f..
  B6C4  DB 0x1C, 0x29, 0x66, 0xA3, 0x0D, 0x1C, 0x33, 0x66 ; .)f...3f
  B6CC  DB 0xA3, 0x0E, 0x1C, 0x3D, 0x66, 0xA3, 0x0F, 0x1C ; ...=f...
  B6D4  DB 0x47, 0x66, 0xA3, 0x26, 0x02, 0x82, 0x02, 0x00 ; Gf.&....
  B6DC  DB 0x10, 0x92, 0xD8, 0x9D, 0x01, 0x11, 0xA1, 0x9C ; ........
  B6E4  DB 0x9D, 0x8A, 0x02, 0x82, 0x02, 0x00, 0x11, 0x92 ; ........
  B6EC  DB 0xB4, 0x9D, 0x01, 0x12, 0xA1, 0x84, 0x9D, 0xEE ; ........
  B6F4  DB 0x02, 0x82, 0x02, 0x00, 0x13, 0x92, 0x90, 0x9D ; ........
  B6FC  DB 0x01, 0x14, 0xA1, 0xDC, 0x9C, 0x20, 0x03, 0x82 ; ..... ..
  B704  DB 0x02, 0x02, 0x1C, 0x92, 0xB4, 0x9D, 0x03, 0x1D ; ........
  B70C  DB 0xA1, 0x1C, 0x9E, 0x22, 0x03, 0x84, 0x01, 0x02 ; ..."....
  B714  DB 0x00, 0x92, 0xFC, 0x9C, 0x7E, 0x04, 0x84, 0x01 ; ....~...
  B71C  DB 0x01, 0x01, 0xA1, 0xE8, 0x9D, 0x7E, 0x04, 0x86 ; .....~..
  B724  DB 0x22, 0xA9, 0x04, 0x87, 0x02, 0x01, 0x02, 0xAB ; ".......
  B72C  DB 0x04, 0x85, 0x01, 0x00, 0x08, 0x09, 0xA3, 0xB0 ; ........
  B734  DB 0x04, 0x8C, 0x40, 0xB0, 0x04, 0x80, 0x07, 0x02 ; ..@.....
  B73C  DB 0x0E, 0x0A, 0x3C, 0x0F, 0x0A, 0x3C, 0xB0, 0x04 ; ..<..<..
  B744  DB 0x81, 0x01, 0x24, 0x14, 0xC8, 0xCE, 0x04, 0x85 ; ..$.....
  B74C  DB 0x04, 0x00, 0x1B, 0xC9, 0xA2, 0x09, 0x0B, 0x4B ; .......K
  B754  DB 0xC9, 0xA2, 0x0A, 0x14, 0x4B, 0xC9, 0xA2, 0x0B ; ....K...
  B75C  DB 0x1D, 0x4B, 0xC9, 0xA2, 0x14, 0x05, 0x81, 0x02 ; .K......
  B764  DB 0x0A, 0x1E, 0x3C, 0x09, 0x05, 0x3C, 0x46, 0x05 ; ..<..<F.
  B76C  DB 0x81, 0x02, 0x20, 0x12, 0x78, 0x1E, 0x0A, 0xC8 ; .. .x...
  B774  DB 0x46, 0x05, 0x80, 0x02, 0x08, 0x07, 0x8B, 0x15 ; F.......
  B77C  DB 0x0F, 0x2F, 0x00, 0x14, 0xDE, 0x9F, 0x6C, 0x07 ; ./....l.
  B784  DB 0x89, 0x1A, 0xB6, 0x00, 0x00, 0x03, 0xA5, 0xB7 ; ........
  B78C  DB 0x06, 0x1A, 0xB6, 0x00, 0x00, 0xA5, 0xB7, 0x1A ; ........
  B794  DB 0xB6, 0x00, 0x00, 0x00, 0x00, 0x00, 0x00, 0x1A ; ........
  B79C  DB 0xB6, 0x00, 0x02, 0x04, 0x06, 0x01, 0x03, 0x05 ; ........
  B7A4  DB 0x07, 0x00, 0x00, 0x86, 0x44, 0x00, 0x00, 0x8A ; ....D...
  B7AC  DB 0x0C, 0x00, 0x00, 0x82, 0x03, 0x00, 0x08, 0x44 ; .......D
  B7B4  DB 0xA7, 0xB9, 0x01, 0x10, 0x44, 0xA7, 0xB9, 0x02 ; ....D...
  B7BC  DB 0x18, 0x44, 0xA7, 0xB9, 0x1E, 0x00, 0x88, 0x4C ; .D.....L
  B7C4  DB 0xB9, 0x1E, 0x00, 0x85, 0x02, 0x00, 0x17, 0x25 ; .......%
  B7CC  DB 0xBA, 0x09, 0x10, 0xAB, 0xEB, 0xA2, 0x2C, 0x01 ; ......,.
  B7D4  DB 0x84, 0x02, 0x00, 0xFF, 0x44, 0xA7, 0xB9, 0x02 ; ....D...
  B7DC  DB 0x01, 0x44, 0xA7, 0xB9, 0x2C, 0x01, 0x8C, 0x08 ; .D..,...
  B7E4  DB 0x90, 0x01, 0x87, 0x02, 0x00, 0x01, 0xA4, 0x01 ; ........
  B7EC  DB 0x82, 0x01, 0x01, 0x09, 0x44, 0xAB, 0xB9, 0x4D ; ....D..M
  B7F4  DB 0x02, 0x85, 0x02, 0x00, 0x0A, 0xC9, 0xA2, 0x01 ; ........
  B7FC  DB 0x1D, 0xC9, 0xA2, 0x59, 0x02, 0x8B, 0x20, 0x0C ; ...Y.. .
  B804  DB 0x00, 0x03, 0x1B, 0xAB, 0x9E, 0xBC, 0x02, 0x84 ; ........
  B80C  DB 0x02, 0x01, 0x00, 0x44, 0xFB, 0xB9, 0x02, 0x04 ; ...D....
  B814  DB 0x44, 0xAB, 0xB9, 0xBC, 0x02, 0x8C, 0x08, 0x20 ; D...... 
  B81C  DB 0x03, 0x84, 0x02, 0x01, 0x00, 0x44, 0xF1, 0xB9 ; .....D..
  B824  DB 0x02, 0x80, 0x44, 0xAB, 0xB9, 0x34, 0x03, 0x82 ; ..D..4..
  B82C  DB 0x01, 0x00, 0x08, 0x44, 0xAB, 0xB9, 0x1A, 0x04 ; ...D....
  B834  DB 0x85, 0x02, 0x00, 0x14, 0x25, 0xBA, 0x09, 0x14 ; ....%...
  B83C  DB 0x64, 0x3E, 0xBA, 0xB0, 0x04, 0x82, 0x03, 0x00 ; d>......
  B844  DB 0x07, 0x44, 0xAF, 0xB9, 0x01, 0x11, 0x44, 0xD1 ; .D....D.
  B84C  DB 0xB9, 0x02, 0x1B, 0x44, 0xAF, 0xB9, 0x14, 0x05 ; ...D....
  B854  DB 0x8C, 0x08, 0x40, 0x06, 0x82, 0x03, 0x00, 0x08 ; ..@.....
  B85C  DB 0x44, 0xAB, 0xB9, 0x01, 0x10, 0x44, 0xA7, 0xB9 ; D....D..
  B864  DB 0x02, 0x18, 0x44, 0xA7, 0xB9, 0x68, 0x06, 0x85 ; ..D..h..
  B86C  DB 0x03, 0x00, 0x18, 0xD1, 0xAA, 0x09, 0x1D, 0x16 ; ........
  B874  DB 0xA0, 0xAA, 0x0A, 0x14, 0x29, 0xBC, 0xAA, 0x9C ; ....)...
  B87C  DB 0x06, 0x8B, 0x60, 0x0C, 0x29, 0x01, 0x14, 0x0E ; ..`.)...
  B884  DB 0xBA, 0xE0, 0x06, 0x82, 0x02, 0x01, 0x0E, 0x44 ; .......D
  B88C  DB 0xAF, 0xB9, 0x02, 0x18, 0x44, 0xD1, 0xB9, 0x08 ; ....D...
  B894  DB 0x07, 0x8C, 0x08, 0x08, 0x07, 0x81, 0x02, 0x0A ; ........
  B89C  DB 0x32, 0x28, 0x22, 0x1E, 0x28, 0x34, 0x08, 0x82 ; 2(".(4..
  B8A4  DB 0x01, 0x02, 0x14, 0x44, 0xF1, 0xB9, 0x98, 0x08 ; ...D....
  B8AC  DB 0x82, 0x01, 0x01, 0x11, 0x44, 0xF1, 0xB9, 0x98 ; ....D...
  B8B4  DB 0x08, 0x8C, 0x20, 0x60, 0x09, 0x82, 0x02, 0x00 ; .. `....
  B8BC  DB 0x0A, 0x44, 0xFB, 0xB9, 0x02, 0x18, 0x44, 0xFB ; .D....D.
  B8C4  DB 0xB9, 0xC4, 0x09, 0x82, 0x01, 0x01, 0x0C, 0x44 ; .......D
  B8CC  DB 0xFB, 0xB9, 0x28, 0x0A, 0x82, 0x02, 0x00, 0x08 ; ..(.....
  B8D4  DB 0x44, 0xA7, 0xB9, 0x01, 0x10, 0x44, 0xA7, 0xB9 ; D....D..
  B8DC  DB 0xF0, 0x0A, 0x85, 0x03, 0x00, 0x0C, 0xEB, 0xA2 ; ........
  B8E4  DB 0x01, 0x10, 0xEB, 0xA2, 0x0A, 0x11, 0x16, 0xAE ; ........
  B8EC  DB 0xAA, 0xF0, 0x0A, 0x8C, 0x00, 0x90, 0x0B, 0x87 ; ........
  B8F4  DB 0x03, 0x00, 0x01, 0x02, 0xB0, 0x0B, 0x85, 0x01 ; ........
  B8FC  DB 0x01, 0x08, 0x50, 0xB9, 0xB8, 0x0B, 0x85, 0x01 ; ..P.....
  B904  DB 0x01, 0x08, 0x7D, 0xB9, 0xB8, 0x0B, 0x85, 0x01 ; ..}.....
  B90C  DB 0x04, 0x08, 0x65, 0xB9, 0xB8, 0x0B, 0x8B, 0x00 ; ..e.....
  B914  DB 0x14, 0xF0, 0x03, 0x08, 0x67, 0xBA, 0xBA, 0x0B ; ....g...
  B91C  DB 0x85, 0x01, 0x07, 0x08, 0x81, 0xBA, 0xBB, 0x0B ; ........
  B924  DB 0x85, 0x01, 0x01, 0x08, 0x7D, 0xB9, 0xBC, 0x0B ; ....}...
  B92C  DB 0x85, 0x01, 0x04, 0x08, 0x71, 0xB9, 0xC4, 0x0B ; ....q...
  B934  DB 0x85, 0x01, 0x04, 0x08, 0x71, 0xB9, 0xC6, 0x0B ; ....q...
  B93C  DB 0x85, 0x01, 0x01, 0x08, 0x7D, 0xB9, 0xC8, 0x0B ; ....}...
  B944  DB 0x85, 0x01, 0x04, 0x08, 0x65, 0xB9, 0xFF, 0xFF ; ....e...
  B94C  DB 0x05, 0x03, 0x04, 0x01, 0x01, 0x00, 0xFE, 0x04 ; ........
  B954  DB 0x02, 0x00, 0x3E, 0xBA, 0x03, 0x08, 0x3E, 0xBA ; ..>...>.
  B95C  DB 0x04, 0x10, 0x3E, 0xBA, 0x09, 0x00, 0x04, 0x50 ; ..>....P
  B964  DB 0xB9, 0x01, 0x00, 0xFF, 0x02, 0x05, 0x00, 0x25 ; .......%
  B96C  DB 0xBA, 0x06, 0x14, 0x25, 0xBA, 0x01, 0x00, 0xFF ; ...%....
  B974  DB 0x02, 0x05, 0xFF, 0x25, 0xBA, 0x06, 0x15, 0x25 ; ...%...%
  B97C  DB 0xBA, 0x03, 0x00, 0xFF, 0x01, 0x02, 0x00, 0x93 ; ........
  B984  DB 0xB9, 0x00, 0xFF, 0x01, 0x02, 0x00, 0x93, 0xB9 ; ........
  B98C  DB 0x00, 0xFF, 0x01, 0x02, 0x00, 0x93, 0xB9, 0x01 ; ........
  B994  DB 0x03, 0x12, 0xB1, 0xB1, 0xB1, 0xB1, 0xB1, 0xB1 ; ........
  B99C  DB 0xB1, 0xB1, 0xB1, 0xB1, 0xB1, 0xB1, 0xB1, 0xB1 ; ........
  B9A4  DB 0xB1, 0xB1, 0xB1, 0xB1, 0x00, 0x00, 0x00, 0x04 ; ........
  B9AC  DB 0x3F, 0xBA, 0x00, 0x04, 0x26, 0xBA, 0x14, 0x01 ; ?...&...
  B9B4  DB 0xA8, 0xB9, 0x06, 0xFF, 0x01, 0x04, 0x26, 0xBA ; ......&.
  B9BC  DB 0x28, 0x01, 0xA8, 0xB9, 0xFE, 0xFF, 0x01, 0x04 ; (.......
  B9C4  DB 0x26, 0xBA, 0x18, 0x01, 0xA8, 0xB9, 0xFC, 0xFF ; &.......
  B9CC  DB 0x01, 0x04, 0x26, 0xBA, 0x00, 0x00, 0xB2, 0xB9 ; ..&.....
  B9D4  DB 0x01, 0x04, 0x26, 0xBA, 0x0C, 0x01, 0xA8, 0xB9 ; ..&.....
  B9DC  DB 0x04, 0xFF, 0x01, 0x04, 0x26, 0xBA, 0x14, 0x01 ; ....&...
  B9E4  DB 0xA8, 0xB9, 0xFC, 0xFF, 0x01, 0x04, 0x26, 0xBA ; ......&.
  B9EC  DB 0x20, 0x01, 0xA8, 0xB9, 0x00, 0x00, 0xD4, 0xB9 ;  .......
  B9F4  DB 0x03, 0x04, 0x26, 0xBA, 0x01, 0xFF, 0x00, 0x00 ; ..&.....
  B9FC  DB 0xF4, 0xB9, 0x01, 0x04, 0x26, 0xBA, 0x02, 0xFF ; ....&...
  BA04  DB 0x01, 0x04, 0x26, 0xBA, 0xFE, 0xFF, 0x00, 0x00 ; ..&.....
  BA0C  DB 0xFE, 0xB9, 0x00, 0x01, 0x86, 0x4E, 0xE8, 0xE8 ; .....N..
  BA14  DB 0x4E, 0xE8, 0x08, 0x4E, 0xE8, 0x28, 0x4E, 0xC8 ; N..N.(N.
  BA1C  DB 0xE8, 0x4E, 0xC8, 0x08, 0x4E, 0xC8, 0x28, 0x00 ; .N..N.(.
  BA24  DB 0x00, 0x04, 0x00, 0x04, 0x61, 0x62, 0x62, 0x63 ; ....abbc
  BA2C  DB 0x00, 0x04, 0x5E, 0x5F, 0x5F, 0x60, 0x00, 0x04 ; ..^__`..
  BA34  DB 0x5E, 0x5F, 0x5F, 0x60, 0x00, 0x04, 0x5B, 0x5C ; ^__`..[\
  BA3C  DB 0x5C, 0x5D, 0x04, 0x00, 0x08, 0x61, 0x62, 0x62 ; \]...abb
  BA44  DB 0x63, 0x61, 0x62, 0x62, 0x63, 0x00, 0x08, 0x5E ; cabbc..^
  BA4C  DB 0x5F, 0x5F, 0x60, 0x5E, 0x5F, 0x5F, 0x60, 0x00 ; __`^__`.
  BA54  DB 0x08, 0x5E, 0x5F, 0x5F, 0x60, 0x5E, 0x5F, 0x5F ; .^__`^__
  BA5C  DB 0x60, 0x00, 0x08, 0x5B, 0x5C, 0x5C, 0x5D, 0x5B ; `..[\\][
  BA64  DB 0x5C, 0x5C, 0x5D, 0x00, 0x01, 0x87, 0x49, 0xA8 ; \\]...I.
  BA6C  DB 0x38, 0x4A, 0xA8, 0x58, 0x49, 0xA8, 0x78, 0x4C ; 8J.XI.xL
  BA74  DB 0x90, 0x58, 0x4E, 0x80, 0x58, 0x4B, 0x80, 0x50 ; .XN.XK.P
  BA7C  DB 0x4B, 0x80, 0x68, 0x00, 0x00, 0x12, 0x09, 0x06 ; K.h.....
  BA84  DB 0x6A, 0x6C, 0xB1, 0xB1, 0x6A, 0x6C, 0x08, 0x08 ; jl..jl..
  BA8C  DB 0x6A, 0x6A, 0x6C, 0x6C, 0x6A, 0x6A, 0x6C, 0x6C ; jjlljjll
  BA94  DB 0x08, 0x08, 0x6A, 0x66, 0x66, 0x66, 0x66, 0x66 ; ..jfffff
  BA9C  DB 0x66, 0x6C, 0x08, 0x08, 0x6A, 0x66, 0x66, 0x66 ; fl..jfff
  BAA4  DB 0x66, 0x66, 0x66, 0x6C, 0x03, 0x12, 0xB1, 0xB1 ; fffl....
  BAAC  DB 0x61, 0x62, 0x63, 0x61, 0x63, 0x66, 0x66, 0x66 ; abcacfff
  BAB4  DB 0x66, 0x61, 0x63, 0x61, 0x62, 0x63, 0xB1, 0xB1 ; facabc..
  BABC  DB 0x03, 0x12, 0xB1, 0x61, 0x6E, 0x5C, 0x5D, 0x5B ; ...an\][
  BAC4  DB 0x5D, 0x5F, 0x66, 0x66, 0x5F, 0x5B, 0x5D, 0x5B ; ]_ff_[][
  BACC  DB 0x5C, 0x6D, 0x63, 0xB1, 0x00, 0x18, 0xF6, 0xF6 ; \mc.....
  BAD4  DB 0xF6, 0xF6, 0x6A, 0x6C, 0xA7, 0xB1, 0xB1, 0xAA ; ..jl....
  BADC  DB 0x61, 0x63, 0x61, 0x63, 0xA7, 0xB1, 0xB1, 0xAA ; acac....
  BAE4  DB 0x6A, 0x6C, 0xF6, 0xF6, 0xF6, 0xF6, 0x00, 0x18 ; jl......
  BAEC  DB 0xF6, 0xF6, 0xF6, 0xF6, 0x5B, 0x5D, 0xA0, 0xD5 ; ....[]..
  BAF4  DB 0xD6, 0xB8, 0x65, 0xC5, 0xC6, 0x65, 0xA0, 0xD5 ; ..e..e..
  BAFC  DB 0xD6, 0xB8, 0x5B, 0x5D, 0xF6, 0xF6, 0xF6, 0xF6 ; ..[]....
  BB04  DB 0x00, 0x18, 0xF6, 0xF6, 0xF6, 0xF6, 0x61, 0x63 ; ......ac
  BB0C  DB 0xA0, 0xD3, 0xD4, 0xB8, 0x65, 0xC3, 0xC4, 0x65 ; ....e..e
  BB14  DB 0xA0, 0xD3, 0xD4, 0xB8, 0x61, 0x63, 0xF6, 0xF6 ; ....ac..
  BB1C  DB 0xF6, 0xF6, 0x00, 0x18, 0xF6, 0xF6, 0xF6, 0xF6 ; ........
  BB24  DB 0x6A, 0x6C, 0xA8, 0xB0, 0xB0, 0xA9, 0x5B, 0x5D ; jl....[]
  BB2C  DB 0x5B, 0x5D, 0xA8, 0xB0, 0xB0, 0xA9, 0x6A, 0x6C ; []....jl
  BB34  DB 0xF6, 0xF6, 0xF6, 0xF6, 0x03, 0x12, 0xB1, 0x5B ; .......[
  BB3C  DB 0x6D, 0x62, 0x63, 0x61, 0x63, 0x66, 0x66, 0x66 ; mbcacfff
  BB44  DB 0x66, 0x61, 0x63, 0x61, 0x62, 0x6E, 0x5D, 0xB1 ; facabn].
  BB4C  DB 0x03, 0x12, 0xB1, 0xB1, 0x5B, 0x5C, 0x5D, 0x66 ; ....[\]f
  BB54  DB 0x66, 0x66, 0xBF, 0xBF, 0x66, 0x66, 0x66, 0x5B ; ff..fff[
  BB5C  DB 0x5C, 0x5D, 0xB1, 0xB1, 0x08, 0x08, 0x6B, 0x61 ; \]....ka
  BB64  DB 0x63, 0xBF, 0xBF, 0x61, 0x63, 0x6B, 0x08, 0x08 ; c..ack..
  BB6C  DB 0x61, 0x63, 0xBF, 0xBF, 0xBF, 0xBF, 0x61, 0x63 ; ac....ac
  BB74  DB 0x08, 0x08, 0x5B, 0x5D, 0x62, 0x63, 0x61, 0x62 ; ..[]bcab
  BB7C  DB 0x5B, 0x5D, 0x04, 0x10, 0xF6, 0xF6, 0xF6, 0xF6 ; []......
  BB84  DB 0xF6, 0x5B, 0x5D, 0xF6, 0xF6, 0x5B, 0x5D, 0xF6 ; .[]..[].
  BB8C  DB 0xF6, 0xF6, 0xF6, 0xF6, 0x04, 0x10, 0x6B, 0x6B ; ......kk
  BB94  DB 0x6B, 0x6B, 0x6B, 0x6B, 0x6B, 0x6B, 0x6B, 0x6B ; kkkkkkkk
  BB9C  DB 0x6B, 0x6B, 0x6B, 0x6B, 0x6B, 0x6B, 0x04, 0x10 ; kkkkkk..
  BBA4  DB 0x61, 0x62, 0x62, 0x62, 0x62, 0x62, 0x62, 0x62 ; abbbbbbb
  BBAC  DB 0x62, 0x62, 0x62, 0x62, 0x62, 0x62, 0x62, 0x63 ; bbbbbbbc
  BBB4  DB 0x00, 0x00, 0x86, 0x55, 0x01, 0x00, 0x85, 0x07 ; ...U....
  BBBC  DB 0x00, 0x0C, 0xAE, 0xBC, 0x09, 0x19, 0x02, 0x96 ; ........
  BBC4  DB 0xBC, 0x0A, 0x0A, 0x04, 0xA6, 0xBC, 0x0B, 0x13 ; ........
  BBCC  DB 0x04, 0xA0, 0xBC, 0x0C, 0x1A, 0x04, 0xA6, 0xBC ; ........
  BBD4  DB 0x0D, 0x09, 0x06, 0x96, 0xBC, 0x0E, 0x1C, 0x07 ; ........
  BBDC  DB 0xAE, 0xBC, 0x08, 0x00, 0x85, 0x04, 0x00, 0x0C ; ........
  BBE4  DB 0xAE, 0xBC, 0x01, 0x14, 0xAE, 0xBC, 0x02, 0x19 ; ........
  BBEC  DB 0x96, 0xBC, 0x0B, 0x08, 0x03, 0xD4, 0xBC, 0x83 ; ........
  BBF4  DB 0x4F, 0x10, 0x38, 0x4F, 0x10, 0x78, 0x4F, 0x30 ; O.8O.xO0
  BBFC  DB 0x58, 0xF1, 0xF1, 0xF3, 0xF1, 0x88, 0xF1, 0x8B ; X.......
  BC04  DB 0x8B, 0xF3, 0x8A, 0x8A, 0xF1, 0x88, 0xF1, 0xF3 ; ........
  BC0C  DB 0xF1, 0xF1, 0xF1, 0xF1, 0xF3, 0xF1, 0x88, 0x83 ; ........
  BC14  DB 0x8B, 0x28, 0x29, 0x2A, 0x8A, 0x82, 0x88, 0xF1 ; .()*....
  BC1C  DB 0xF3, 0xF1, 0xF1, 0x85, 0xF1, 0xF5, 0x84, 0x84 ; ........
  BC24  DB 0x84, 0x85, 0x25, 0x26, 0x27, 0x85, 0x84, 0x84 ; ..%&'...
  BC2C  DB 0x84, 0xF5, 0xF1, 0x85, 0xF3, 0xF1, 0xF1, 0x83 ; ........
  BC34  DB 0x88, 0x82, 0x8A, 0x22, 0x29, 0x24, 0x8B, 0x83 ; ...")$..
  BC3C  DB 0x88, 0x82, 0xF1, 0xF1, 0xF3, 0xF3, 0xF1, 0x8B ; ........
  BC44  DB 0x8B, 0x88, 0x8A, 0x8A, 0x8A, 0xF3, 0x8B, 0x8B ; ........
  BC4C  DB 0x8B, 0x88, 0x8A, 0x8A, 0xF1, 0xF3, 0xF3, 0x83 ; ........
  BC54  DB 0x8B, 0x28, 0x29, 0x2A, 0x8A, 0x82, 0xF4, 0x83 ; .()*....
  BC5C  DB 0x8B, 0x28, 0x29, 0x2A, 0x8A, 0x82, 0xF3, 0x85 ; .()*....
  BC64  DB 0x86, 0x86, 0x25, 0x26, 0x27, 0x86, 0x87, 0xF4 ; ..%&'...
  BC6C  DB 0x87, 0x86, 0x25, 0x26, 0x27, 0x86, 0x86, 0x85 ; ..%&'...
  BC74  DB 0xF0, 0x82, 0x8A, 0x22, 0x23, 0x24, 0x8B, 0x83 ; ..."#$..
  BC7C  DB 0xF4, 0x82, 0x8A, 0x22, 0x23, 0x24, 0x8B, 0x83 ; ..."#$..
  BC84  DB 0xF0, 0xF0, 0xF0, 0x8A, 0x8A, 0x88, 0x8B, 0x8B ; ........
  BC8C  DB 0x67, 0xF3, 0x67, 0x8A, 0x8A, 0x88, 0x8B, 0x8B ; g.g.....
  BC94  DB 0xF0, 0xF0, 0x01, 0x00, 0x07, 0x85, 0x84, 0x84 ; ........
  BC9C  DB 0x84, 0x84, 0x84, 0x85, 0x01, 0x00, 0x03, 0x86 ; ........
  BCA4  DB 0x87, 0x86, 0x01, 0x00, 0x05, 0x86, 0x87, 0x87 ; ........
  BCAC  DB 0x87, 0x86, 0x01, 0x00, 0x01, 0x73, 0x8B, 0x49 ; .....s.I
  BCB4  DB 0x30, 0x48, 0x4A, 0x30, 0x70, 0x4B, 0x30, 0x60 ; 0HJ0pK0`
  BCBC  DB 0x4B, 0x28, 0x60, 0x4C, 0x28, 0x50, 0x4C, 0x28 ; K(`L(PL(
  BCC4  DB 0x68, 0x4A, 0x10, 0x48, 0x49, 0x10, 0x70, 0x4E ; hJ.HI.pN
  BCCC  DB 0x08, 0x38, 0x4E, 0x08, 0x80, 0x4D, 0x08, 0x60 ; .8N..M.`
  BCD4  DB 0x0E, 0x0B, 0x03, 0x76, 0x77, 0x78, 0x03, 0x13 ; ...vwx..
  BCDC  DB 0x76, 0x77, 0x78, 0x7A, 0x7B, 0x7C, 0x67, 0x67 ; vwxz{|gg
  BCE4  DB 0x67, 0x67, 0x67, 0x67, 0x67, 0x6F, 0x70, 0x71 ; gggggopq
  BCEC  DB 0x76, 0x77, 0x78, 0x00, 0x18, 0x67, 0x67, 0x67 ; vwx..ggg
  BCF4  DB 0x67, 0x67, 0x67, 0x67, 0x67, 0x67, 0x67, 0x67 ; gggggggg
  BCFC  DB 0x67, 0x67, 0x67, 0x67, 0x67, 0x67, 0x67, 0x67 ; gggggggg
  BD04  DB 0x67, 0x67, 0x67, 0x67, 0x67, 0x00, 0x18, 0xF1 ; ggggg...
  BD0C  DB 0xF1, 0xF1, 0x66, 0xF1, 0xF1, 0xF5, 0xF6, 0xF5 ; ..f.....
  BD14  DB 0xF1, 0xF1, 0xF1, 0xF1, 0xF1, 0xF1, 0xF1, 0xF5 ; ........
  BD1C  DB 0xF6, 0xF5, 0xF1, 0xF1, 0x66, 0xF1, 0xF1, 0x00 ; ....f...
  BD24  DB 0x18, 0x67, 0x67, 0x67, 0x66, 0xFA, 0xF9, 0xFA ; .gggf...
  BD2C  DB 0xF9, 0x88, 0x67, 0x67, 0x67, 0x67, 0x67, 0x67 ; ..gggggg
  BD34  DB 0x67, 0x88, 0xFA, 0xF9, 0xFA, 0xF9, 0x66, 0x67 ; g.....fg
  BD3C  DB 0x67, 0x00, 0x18, 0x67, 0x67, 0xF1, 0x66, 0xF9 ; g..gg.f.
  BD44  DB 0xFA, 0xF9, 0xFA, 0x88, 0xD5, 0xD6, 0x67, 0xF0 ; ......g.
  BD4C  DB 0x67, 0xC5, 0xC6, 0x88, 0xF9, 0xFA, 0xF9, 0xFA ; g.......
  BD54  DB 0x66, 0xF1, 0x67, 0x00, 0x18, 0x84, 0x84, 0x84 ; f.g.....
  BD5C  DB 0x84, 0x85, 0x67, 0x67, 0x67, 0x88, 0xD3, 0xD4 ; ..ggg...
  BD64  DB 0xF0, 0xBF, 0xF0, 0xC3, 0xC4, 0x88, 0x67, 0x67 ; ......gg
  BD6C  DB 0x67, 0x85, 0x84, 0x84, 0x84, 0x00, 0x18, 0x67 ; g......g
  BD74  DB 0x67, 0xF1, 0x66, 0x88, 0x67, 0x6B, 0x6B, 0x88 ; g.f.gkk.
  BD7C  DB 0x67, 0xBF, 0xBF, 0xBF, 0xBF, 0xBF, 0x67, 0x88 ; g.....g.
  BD84  DB 0x6B, 0x6B, 0x67, 0x88, 0x66, 0xF1, 0x67, 0x00 ; kkg.f.g.
  BD8C  DB 0x18, 0x67, 0x67, 0xF1, 0x66, 0x88, 0x67, 0x6B ; .gg.f.gk
  BD94  DB 0x6B, 0x88, 0x67, 0x67, 0x85, 0x84, 0x85, 0x67 ; k.gg...g
  BD9C  DB 0x67, 0x88, 0x6B, 0x6B, 0x67, 0x88, 0x66, 0xF1 ; g.kkg.f.
  BDA4  DB 0x67, 0x00, 0x18, 0x67, 0x67, 0xF1, 0x66, 0x85 ; g..gg.f.
  BDAC  DB 0x84, 0x84, 0x84, 0x85, 0xC5, 0xC6, 0x88, 0xF0 ; ........
  BDB4  DB 0x88, 0xD5, 0xD6, 0x85, 0x84, 0x84, 0x84, 0x85 ; ........
  BDBC  DB 0x66, 0xF1, 0x67, 0x00, 0x18, 0x67, 0x67, 0x67 ; f.g..ggg
  BDC4  DB 0x66, 0x67, 0x6B, 0x6B, 0xBF, 0xBF, 0xC3, 0xC4 ; fgkk....
  BDCC  DB 0x88, 0xBF, 0x88, 0xD3, 0xD4, 0xBF, 0xBF, 0x6B ; .......k
  BDD4  DB 0x6B, 0x67, 0x66, 0x67, 0x67, 0x00, 0x18, 0x67 ; kgfgg..g
  BDDC  DB 0x67, 0x67, 0x66, 0x67, 0x67, 0x67, 0xBF, 0xBF ; ggfggg..
  BDE4  DB 0x67, 0x67, 0x88, 0xBF, 0x88, 0x67, 0x67, 0xBF ; gg...gg.
  BDEC  DB 0xBF, 0x67, 0x67, 0x67, 0x66, 0x67, 0x67, 0x00 ; .gggfgg.
  BDF4  DB 0x18, 0x84, 0x85, 0x84, 0x85, 0x84, 0x84, 0x84 ; ........
  BDFC  DB 0x84, 0x84, 0x84, 0x84, 0x85, 0x67, 0x85, 0x84 ; .....g..
  BE04  DB 0x84, 0x84, 0x84, 0x84, 0x84, 0x84, 0x85, 0x84 ; ........
  BE0C  DB 0x85, 0x00, 0x18, 0x67, 0x67, 0x67, 0x66, 0xF0 ; ...gggf.
  BE14  DB 0xF0, 0xF0, 0xF0, 0xF0, 0xF0, 0xF1, 0xF1, 0xF0 ; ........
  BE1C  DB 0xF1, 0xF1, 0xF0, 0xF0, 0xF0, 0xF0, 0xF0, 0xF0 ; ........
  BE24  DB 0x66, 0x67, 0x67                         ; fgg

; --- LBE27 ---
  BE27  DD CB 2D 86 RES 0,(IX+45)
  BE2B  DD 7E 2E    LD A,(IX+46)
  BE2E  DD 86 32    ADD A,(IX+50)
  BE31  30 02       JR NC,LBE35
  BE33  3E FF       LD A,0xff

; --- LBE35 ---
  BE35  FE A0       CP 0xa0
  BE37  38 02       JR C,LBE3B
  BE39  3E 9F       LD A,0x9f

; --- LBE3B ---
  BE3B  CB 3F       SRL A
  BE3D  4F          LD C,A
  BE3E  E6 7E       AND 0x7e
  BE40  5F          LD E,A
  BE41  16 00       LD D,0x00
  BE43  21 7C BE    LD HL,0xbe7c
  BE46  19          ADD HL,DE
  BE47  5E          LD E,(HL)
  BE48  23          INC HL
  BE49  DD 7E 35    LD A,(IX+53)
  BE4C  BE          CP (HL)
  BE4D  38 01       JR C,LBE50
  BE4F  97          SUB A

; --- LBE50 ---
  BE50  DD 77 35    LD (IX+53),A
  BE53  CB 39       SRL C
  BE55  CB 39       SRL C
  BE57  CB 39       SRL C
  BE59  CB 39       SRL C
  BE5B  42          LD B,D
  BE5C  7E          LD A,(HL)
  BE5D  DD 77 36    LD (IX+54),A
  BE60  21 76 BE    LD HL,0xbe76
  BE63  09          ADD HL,BC
  BE64  46          LD B,(HL)
  BE65  DD 70 37    LD (IX+55),B
  BE68  DD 70 38    LD (IX+56),B
  BE6B  21 CC BE    LD HL,0xbecc
  BE6E  19          ADD HL,DE
  BE6F  DD 75 33    LD (IX+51),L
  BE72  DD 74 34    LD (IX+52),H
  BE75  C9          RET
  BE76  DB 0x38, 0x32, 0x2C, 0x22, 0x1C, 0x14, 0x00, 0x05 ; 82,"....
  BE7E  DB 0x03, 0x04, 0x05, 0x06, 0x08, 0x06, 0x0B, 0x05 ; ........
  BE86  DB 0x0C, 0x06, 0x10, 0x05, 0x12, 0x06, 0x14, 0x06 ; ........
  BE8E  DB 0x18, 0x04, 0x1C, 0x04, 0x18, 0x08, 0x1A, 0x08 ; ........
  BE96  DB 0x1E, 0x06, 0x20, 0x04, 0x23, 0x05, 0x24, 0x06 ; .. .#.$.
  BE9E  DB 0x22, 0x08, 0x26, 0x04, 0x28, 0x05, 0x2B, 0x05 ; ".&.(.+.
  BEA6  DB 0x2E, 0x06, 0x30, 0x06, 0x31, 0x08, 0x34, 0x06 ; ..0.1.4.
  BEAE  DB 0x38, 0x06, 0x3A, 0x06, 0x3D, 0x05, 0x40, 0x04 ; 8.:.=.@.
  BEB6  DB 0x40, 0x08, 0x45, 0x07, 0x48, 0x04, 0x49, 0x03 ; @.E.H.I.
  BEBE  DB 0x4C, 0x06, 0x4E, 0x06, 0x50, 0x05, 0x10, 0x20 ; L.N.P.. 
  BEC6  DB 0x55, 0x06, 0x58, 0x04, 0x5A, 0x06, 0x40, 0x2C ; U.X.Z.@,
  BECE  DB 0x2C, 0x2C, 0x2C, 0x38, 0x38, 0x2C, 0x0C, 0x0A ; ,,,88,..
  BED6  DB 0x0D, 0x0A, 0x0E, 0x0F, 0x0A, 0x0A, 0x39, 0x0B ; ......9.
  BEDE  DB 0x30, 0x31, 0x0A, 0x39, 0x39, 0x40, 0x12, 0x18 ; 01.99@..
  BEE6  DB 0x10, 0x19, 0x07, 0x1E, 0x30, 0x31, 0x2E, 0x24 ; ....01.$
  BEEE  DB 0x2F, 0x19, 0x18, 0x07, 0x08, 0x1E, 0x24, 0x24 ; /.....$$
  BEF6  DB 0x08, 0x16, 0x17, 0x2F, 0x2E, 0x1A, 0x1B, 0x0B ; .../....
  BEFE  DB 0x44, 0x40, 0x3A, 0x1C, 0x17, 0x08, 0x16, 0x1D ; D@:.....
  BF06  DB 0x0A, 0x22, 0x32, 0x30, 0x2F, 0x1D, 0x22, 0x22 ; ."20/.""
  BF0E  DB 0x11, 0x33, 0x3A, 0x34, 0x11, 0x32, 0x36, 0x09 ; .3:4.26.
  BF16  DB 0x08, 0x07, 0x0A, 0x19, 0x35, 0x37, 0x09, 0x41 ; ....57.A
  BF1E  DB 0x0B, 0x1C, 0x1D, 0x24, 0x33, 0x22, 0x3A, 0x1E ; ...$3":.
  BF26  DB 0x42, 0x36, 0x37, 0x09, 0x41, 0x43       ; B67.AC

; --- LBF2C ---
  BF2C  DD 21 00 E1 LD IX,0xe100
  BF30  DD CB 02 5E BIT 3,(IX+2)
  BF34  C0          RET NZ
  BF35  DD CB 2D 46 BIT 0,(IX+45)
  BF39  C4 27 BE    CALL NZ,LBE27
  BF3C  DD CB 25 46 BIT 0,(IX+37)
  BF40  20 5E       JR NZ,LBFA0
  BF42  DD CB 2D 5E BIT 3,(IX+45)
  BF46  C0          RET NZ
  BF47  21 38 E1    LD HL,0xe138
  BF4A  DD CB 2D 4E BIT 1,(IX+45)
  BF4E  C8          RET Z
  BF4F  7E          LD A,(HL)
  BF50  2B          DEC HL
  BF51  35          DEC (HL)
  BF52  C0          RET NZ
  BF53  77          LD (HL),A
  BF54  2B          DEC HL
  BF55  DD 7E 26    LD A,(IX+38)
  BF58  DD 34 26    INC (IX+38)
  BF5B  E6 0F       AND 0x0f
  BF5D  CA 94 BF    JP Z,LBF94
  BF60  7E          LD A,(HL)
  BF61  2B          DEC HL
  BF62  4E          LD C,(HL)
  BF63  34          INC (HL)
  BF64  3D          DEC A
  BF65  B9          CP C
  BF66  20 02       JR NZ,LBF6A
  BF68  36 00       LD (HL),0x00

; --- LBF6A ---
  BF6A  06 00       LD B,0x00
  BF6C  2A 33 E1    LD HL,(0xe133)
  BF6F  09          ADD HL,BC
  BF70  7E          LD A,(HL)
  BF71  A7          AND A
  BF72  C8          RET Z
  BF73  08          EX AF,AF'
  BF74  CD 96 44    CALL L4496
  BF77  D8          RET C
  BF78  08          EX AF,AF'
  BF79  77          LD (HL),A
  BF7A  DD 7E 2F    LD A,(IX+47)
  BF7D  C6 08       ADD A,0x08
  BF7F  DD 77 2F    LD (IX+47),A
  BF82  30 08       JR NC,LBF8C
  BF84  DD 34 2E    INC (IX+46)
  BF87  20 03       JR NZ,LBF8C
  BF89  DD 35 2E    DEC (IX+46)

; --- LBF8C ---
  BF8C  DD 34 42    INC (IX+66)
  BF8F  C0          RET NZ
  BF90  DD 35 42    DEC (IX+66)
  BF93  C9          RET

; --- LBF94 ---
  BF94  CD 96 44    CALL L4496
  BF97  38 01       JR C,LBF9A
  BF99  36 3D       LD (HL),0x3d
  BF9B  C9          RET
  BF9C  DB 0xDD, 0x35, 0x26, 0xC9                   ; .5&.

; --- LBFA0 ---
  BFA0  CD 96 44    CALL L4496
  BFA3  D8          RET C
  BFA4  DD CB 25 86 RES 0,(IX+37)
  BFA8  36 44       LD (HL),0x44
  BFAA  C9          RET

; --- LBFAB ---
  BFAB  21 2E E1    LD HL,0xe12e
  BFAE  CD CB BF    CALL LBFCB
  BFB1  18 06       JR LBFB9

; --- LBFB3 ---
  BFB3  21 2E E1    LD HL,0xe12e
  BFB6  CD C2 BF    CALL LBFC2

; --- LBFB9 ---
  BFB9  21 2D E1    LD HL,0xe12d
  BFBC  CB C6       SET 0,(HL)
  BFBE  C9          RET

; --- LBFBF ---
  BFBF  21 30 E1    LD HL,0xe130

; --- LBFC2 ---
  BFC2  7E          LD A,(HL)
  BFC3  A7          AND A
  BFC4  28 10       JR Z,LBFD6
  BFC6  18 0D       JR LBFD5

; --- LBFC8 ---
  BFC8  21 30 E1    LD HL,0xe130

; --- LBFCB ---
  BFCB  3A 50 E1    LD A,(0xe150)
  BFCE  CB 4F       BIT 1,A
  BFD0  20 04       JR NZ,LBFD6
  BFD2  34          INC (HL)
  BFD3  20 01       JR NZ,LBFD6

; --- LBFD5 ---
  BFD5  35          DEC (HL)

; --- LBFD6 ---
  BFD6  21 39 38    LD HL,0x3839
  BFD9  CD 25 5C    CALL L5C25
  BFDC  41          LD B,C
  BFDD  4C          LD C,H
  BFDE  43          LD B,E
  BFDF  00          NOP
  BFE0  21 59 38    LD HL,0x3859
  BFE3  CD 53 00    CALL 0x0053   ; BIOS:SETWRT
  BFE6  3A 2E E1    LD A,(0xe12e)
  BFE9  CD 74 4C    CALL L4C74
  BFEC  3A 32 E1    LD A,(0xe132)
  BFEF  CD 74 4C    CALL L4C74
  BFF2  3A 30 E1    LD A,(0xe130)
  BFF5  CD 74 4C    CALL L4C74
  BFF8  C3 F8 42    JP L42F8
  BFFB  DB 0xFF, 0xFF, 0xFF, 0xFF, 0xFF             ; .....
